
sunglasses2.elf:     file format elf32-littleriscv
sunglasses2.elf
architecture: riscv:rv32, flags 0x00000112:
EXEC_P, HAS_SYMS, D_PAGED
start address 0x00000000

Program Header:
    LOAD off    0x00001000 vaddr 0x00000000 paddr 0x00000000 align 2**12
         filesz 0x00001fec memsz 0x00001fec flags r-x
    LOAD off    0x00003000 vaddr 0x20000000 paddr 0x00001fec align 2**12
         filesz 0x00000048 memsz 0x00000160 flags rw-
    LOAD off    0x00003700 vaddr 0x20000700 paddr 0x20000700 align 2**12
         filesz 0x00000000 memsz 0x00000100 flags rw-

Sections:
Idx Name          Size      VMA       LMA       File off  Algn
  0 .init         000000a0  00000000  00000000  00001000  2**2
                  CONTENTS, ALLOC, LOAD, READONLY, CODE
  1 .text         00001f4c  000000a0  000000a0  000010a0  2**2
                  CONTENTS, ALLOC, LOAD, READONLY, CODE
  2 .fini         00000000  00001fec  00001fec  00003048  2**0
                  CONTENTS, ALLOC, LOAD, CODE
  3 .dalign       00000000  20000000  20000000  00003048  2**0
                  CONTENTS
  4 .dlalign      00000000  00001fec  00001fec  00003048  2**0
                  CONTENTS
  5 .data         00000048  20000000  00001fec  00003000  2**2
                  CONTENTS, ALLOC, LOAD, DATA
  6 .bss          00000118  20000048  00002034  00003048  2**2
                  ALLOC
  7 .stack        00000100  20000700  20000700  00003700  2**0
                  ALLOC
  8 .debug_info   000104e6  00000000  00000000  00003048  2**0
                  CONTENTS, READONLY, DEBUGGING
  9 .debug_abbrev 000024f4  00000000  00000000  0001352e  2**0
                  CONTENTS, READONLY, DEBUGGING
 10 .debug_aranges 00000938  00000000  00000000  00015a28  2**3
                  CONTENTS, READONLY, DEBUGGING
 11 .debug_ranges 00001068  00000000  00000000  00016360  2**3
                  CONTENTS, READONLY, DEBUGGING
 12 .debug_line   0000dd86  00000000  00000000  000173c8  2**0
                  CONTENTS, READONLY, DEBUGGING
 13 .debug_str    00002b0a  00000000  00000000  0002514e  2**0
                  CONTENTS, READONLY, DEBUGGING
 14 .comment      00000033  00000000  00000000  00027c58  2**0
                  CONTENTS, READONLY
 15 .debug_frame  000017e0  00000000  00000000  00027c8c  2**2
                  CONTENTS, READONLY, DEBUGGING
 16 .debug_loc    000066d7  00000000  00000000  0002946c  2**0
                  CONTENTS, READONLY, DEBUGGING
SYMBOL TABLE:
00000000 l    d  .init	00000000 .init
000000a0 l    d  .text	00000000 .text
00001fec l    d  .fini	00000000 .fini
20000000 l    d  .dalign	00000000 .dalign
00001fec l    d  .dlalign	00000000 .dlalign
20000000 l    d  .data	00000000 .data
20000048 l    d  .bss	00000000 .bss
20000700 l    d  .stack	00000000 .stack
00000000 l    d  .debug_info	00000000 .debug_info
00000000 l    d  .debug_abbrev	00000000 .debug_abbrev
00000000 l    d  .debug_aranges	00000000 .debug_aranges
00000000 l    d  .debug_ranges	00000000 .debug_ranges
00000000 l    d  .debug_line	00000000 .debug_line
00000000 l    d  .debug_str	00000000 .debug_str
00000000 l    d  .comment	00000000 .comment
00000000 l    d  .debug_frame	00000000 .debug_frame
00000000 l    d  .debug_loc	00000000 .debug_loc
00000000 l    df *ABS*	00000000 ch32v00x_it.c
00000000 l    df *ABS*	00000000 main.c
200000fc l     O .bss	00000003 c.4826
20000100 l     O .bss	00000004 int_state.4867
20000104 l     O .bss	00000004 int_state.4871
20000108 l     O .bss	00000004 int_state.4880
2000010c l     O .bss	00000004 int_state.4892
20000110 l     O .bss	00000004 int_state.4900
20000114 l     O .bss	00000004 int_state.4909
20000118 l     O .bss	00000004 int_state.4925
2000011c l     O .bss	00000004 int_state.4940
20000120 l     O .bss	00000004 int_state.4948
20000124 l     O .bss	00000004 int_state.4958
20000128 l     O .bss	00000004 int_state.4971
2000012c l     O .bss	00000004 int_state.4984
20000130 l     O .bss	00000004 int_state.4997
20000134 l     O .bss	00000004 int_state.5010
20000138 l     O .bss	00000004 int_state.5019
20000000 l     O .data	00000004 animation_step.6359
00000000 l    df *ABS*	00000000 system_ch32v00x.c
00000000 l    df *ABS*	00000000 ch32v00x_exti.c
00000000 l    df *ABS*	00000000 ch32v00x_gpio.c
00000000 l    df *ABS*	00000000 ch32v00x_i2c.c
00000000 l    df *ABS*	00000000 ch32v00x_iwdg.c
00000000 l    df *ABS*	00000000 ch32v00x_misc.c
00000000 l    df *ABS*	00000000 ch32v00x_rcc.c
20000020 l     O .data	00000014 ADCPrescTable
20000034 l     O .data	00000010 APBAHBPrescTable
00000000 l    df *ABS*	00000000 ch32v00x_tim.c
00000000 l    df *ABS*	00000000 debug.c
2000015c l     O .bss	00000002 p_ms
2000015e l     O .bss	00000001 p_us
000002f4 g     F .text	0000001a delay_nd
20000004 g     O .data	00000004 s_state
00000264 g     F .text	0000001e LED_OFF
20000848 g       .data	00000000 __global_pointer$
00001816  w      .text	00000000 TIM1_CC_IRQHandler
00001b76 g     F .text	00000008 I2C_ReceiveData
000003aa g     F .text	00000092 eight_nd
0000014c g     F .text	00000002 HardFault_Handler
00001816  w      .text	00000000 SysTick_Handler
00001c22 g     F .text	00000054 NVIC_Init
00000c04 g     F .text	00000114 i2c_ReadOneByte
00001816  w      .text	00000000 PVD_IRQHandler
0000014a g     F .text	00000002 NMI_Handler
0000062e g     F .text	00000080 fill1_nd
00000b36 g     F .text	00000054 timer2_init
0000097a g     F .text	00000094 rainbow_nd
000013a6 g     F .text	0000014a gravity
20000048 g       .bss	00000000 _sbss
00000358 g     F .text	00000052 fadeOut_nd
00000100 g       *ABS*	00000000 __stack_size
00001f3c g     O .text	0000001c cos_lut
0000030e g     F .text	0000004a fadeIn_nd
000000aa g     F .text	0000000a .hidden __riscv_restore_2
00001be8 g     F .text	00000008 IWDG_SetReload
0000082e g     F .text	00000070 hCurtain2_nd
00001dae g     F .text	00000018 TIM_Cmd
2000001c g     O .data	00000004 SystemCoreClock
0000043c g     F .text	0000005e eight2_nd
000000d4 g     F .text	0000002c .hidden __udivsi3
000000a0 g       .init	00000000 _einit
00001df0 g     F .text	0000000c TIM_ClearITPendingBit
00001d24 g     F .text	0000001e RCC_APB2PeriphClockCmd
00001932 g     F .text	000000d6 GPIO_Init
00000b14 g     F .text	00000022 prand8
20000158 g     O .bss	00000004 NVIC_Priority_Group
00001816  w      .text	00000000 SPI1_IRQHandler
000000a0 g     F .text	0000000a .hidden __riscv_save_1
000000aa g     F .text	0000000a .hidden __riscv_restore_0
00001816  w      .text	00000000 AWU_IRQHandler
00001112 g     F .text	00000022 EXTI7_0_IRQHandler
00001d42 g     F .text	0000001e RCC_APB1PeriphClockCmd
000006ae g     F .text	00000086 fill2_nd
20000700 g       .stack	00000000 _heap_end
00001e30 g     F .text	0000003a Delay_Us
00000f9e g     F .text	000000f8 i2c_WriteMultipleBytes
0000017c g     F .text	00000056 LED_SendBit
00001816  w      .text	00000000 DMA1_Channel4_IRQHandler
00001b72 g     F .text	00000004 I2C_SendData
00001816  w      .text	00000000 ADC1_IRQHandler
00001bf0 g     F .text	0000000e IWDG_ReloadCounter
00001a2a g     F .text	000000e2 I2C_Init
00001928 g     F .text	0000000a EXTI_ClearITPendingBit
20000160 g       .bss	00000000 _ebss
00001816  w      .text	00000000 DMA1_Channel7_IRQHandler
00001dfc g     F .text	00000034 Delay_Init
00000244 g     F .text	00000020 clear
0000014e g     F .text	0000002e GPIO_INITZ
00000100 g     F .text	00000008 .hidden __umodsi3
00001b24 g     F .text	0000001a I2C_GenerateSTART
00001816  w      .text	00000000 I2C1_EV_IRQHandler
00001dd8 g     F .text	00000018 TIM_GetITStatus
00001c88 g     F .text	0000009c RCC_GetClocksFreq
00001816  w      .text	00000000 DMA1_Channel6_IRQHandler
00001816  w      .text	00000000 RCC_IRQHandler
00001816  w      .text	00000000 TIM1_TRG_COM_IRQHandler
00001816  w      .text	00000000 DMA1_Channel1_IRQHandler
00001bd8 g     F .text	00000008 IWDG_WriteAccessCmd
00000000 g       .init	00000000 _start
2000000c g     O .data	00000010 AHBPrescTable
00001ba6 g     F .text	00000032 I2C_GetFlagStatus
00001dc6 g     F .text	00000012 TIM_ITConfig
00000e9e g     F .text	00000016 platform_read
00001bfe g     F .text	0000001e IWDG_Enable
000018a0 g     F .text	0000006a EXTI_Init
000001d2 g     F .text	00000050 LED_SendColour
000000b4 g     F .text	00000014 .hidden __mulsi3
00001b0c g     F .text	00000018 I2C_Cmd
20000154 g     O .bss	00000004 trigsw
20000000 g       .dalign	00000000 _data_vma
00001a08 g     F .text	00000022 GPIO_EXTILineConfig
00001fd0 g     O .text	0000001c sin_lut
00001b7e g     F .text	00000012 I2C_Send7bitAddress
0000190a g     F .text	0000001e EXTI_GetITStatus
000010ac g     F .text	00000044 iwdg_init
00001c76 g     F .text	00000012 RCC_AdjustHSICalibrationValue
0000153a g     F .text	000001e8 main
00000a0e g     F .text	00000106 atan2sqrt
2000013c g     O .bss	00000010 lis12_ctx
00000282 g     F .text	00000072 Wheel
00000eb4 g     F .text	000000ea i2c_WriteOneByte
0000090a g     F .text	00000070 vCurtain2_nd
00001816  w      .text	00000000 DMA1_Channel5_IRQHandler
000000cc g     F .text	00000058 .hidden __divsi3
00001e6a g     F .text	0000003a Delay_Ms
00001722 g     F .text	00000088 SystemInit
00000222 g     F .text	00000022 SHOWTIME
00000734 g     F .text	0000008e theaterChase2_nd
00000000 g       .init	00000000 _sinit
00001816  w      .text	00000000 DMA1_Channel3_IRQHandler
00000d18 g     F .text	00000186 i2c_ReadMultipleBytes
000014f0 g     F .text	0000004a glitter
00001816  w      .text	00000000 TIM1_UP_IRQHandler
00000b8a g     F .text	0000007a i2c_init
20000008 g     O .data	00000004 swcooldown
00001816  w      .text	00000000 WWDG_IRQHandler
20000048 g     O .bss	000000b4 BUFFER_LEDS
000010f0 g     F .text	00000022 TIM2_IRQHandler
20000800 g       .stack	00000000 _eusrstack
000000a0 g     F .text	0000000a .hidden __riscv_save_2
00001816  w      .text	00000000 SW_Handler
00001816  w      .text	00000000 TIM1_BRK_IRQHandler
00000564 g     F .text	000000ca eight3b_nd
20000048 g       .data	00000000 _edata
00001134 g     F .text	00000272 demo
20000160 g       .bss	00000000 _end
00001096 g     F .text	00000016 platform_write
00001d60 g     F .text	0000004e TIM_TimeBaseInit
0000049a g     F .text	000000ca eight3_nd
00001fec g       .dlalign	00000000 _data_lma
0000089e g     F .text	0000006c vCurtain1_nd
000017aa g     F .text	0000006c SystemCoreClockUpdate
00000124 g     F .text	00000024 .hidden __modsi3
20000150 g     O .bss	00000004 trig10ms
00001816  w      .text	00000000 DMA1_Channel2_IRQHandler
000007c2 g     F .text	0000006c hCurtain1_nd
00001818  w      .text	00000000 handle_reset
00001be0 g     F .text	00000008 IWDG_SetPrescaler
00001816  w      .text	00000000 FLASH_IRQHandler
000000a0 g     F .text	0000000a .hidden __riscv_save_0
2000014c g     O .bss	00000004 random_seed
00001816  w      .text	00000000 USART1_IRQHandler
00001b58 g     F .text	0000001a I2C_AcknowledgeConfig
00001b90 g     F .text	00000016 I2C_CheckEvent
00001b3e g     F .text	0000001a I2C_GenerateSTOP
00001816  w      .text	00000000 I2C1_ER_IRQHandler
00001c1c g     F .text	00000006 NVIC_PriorityGroupConfig
00001f94 g     O .text	0000003c led_y_pos
000000aa g     F .text	0000000a .hidden __riscv_restore_1
00001f58 g     O .text	0000003c led_x_pos



Disassembly of section .init:

00000000 <_sinit>:
   0:	0190106f          	j	1818 <handle_reset>
   4:	0000                	unimp
   6:	0000                	unimp
   8:	014a                	slli	sp,sp,0x12
   a:	0000                	unimp
   c:	014c                	addi	a1,sp,132
	...
  2e:	0000                	unimp
  30:	1816                	slli	a6,a6,0x25
  32:	0000                	unimp
  34:	0000                	unimp
  36:	0000                	unimp
  38:	1816                	slli	a6,a6,0x25
  3a:	0000                	unimp
  3c:	0000                	unimp
  3e:	0000                	unimp
  40:	1816                	slli	a6,a6,0x25
  42:	0000                	unimp
  44:	1816                	slli	a6,a6,0x25
  46:	0000                	unimp
  48:	1816                	slli	a6,a6,0x25
  4a:	0000                	unimp
  4c:	1816                	slli	a6,a6,0x25
  4e:	0000                	unimp
  50:	1112                	slli	sp,sp,0x24
  52:	0000                	unimp
  54:	1816                	slli	a6,a6,0x25
  56:	0000                	unimp
  58:	1816                	slli	a6,a6,0x25
  5a:	0000                	unimp
  5c:	1816                	slli	a6,a6,0x25
  5e:	0000                	unimp
  60:	1816                	slli	a6,a6,0x25
  62:	0000                	unimp
  64:	1816                	slli	a6,a6,0x25
  66:	0000                	unimp
  68:	1816                	slli	a6,a6,0x25
  6a:	0000                	unimp
  6c:	1816                	slli	a6,a6,0x25
  6e:	0000                	unimp
  70:	1816                	slli	a6,a6,0x25
  72:	0000                	unimp
  74:	1816                	slli	a6,a6,0x25
  76:	0000                	unimp
  78:	1816                	slli	a6,a6,0x25
  7a:	0000                	unimp
  7c:	1816                	slli	a6,a6,0x25
  7e:	0000                	unimp
  80:	1816                	slli	a6,a6,0x25
  82:	0000                	unimp
  84:	1816                	slli	a6,a6,0x25
  86:	0000                	unimp
  88:	1816                	slli	a6,a6,0x25
  8a:	0000                	unimp
  8c:	1816                	slli	a6,a6,0x25
  8e:	0000                	unimp
  90:	1816                	slli	a6,a6,0x25
  92:	0000                	unimp
  94:	1816                	slli	a6,a6,0x25
  96:	0000                	unimp
  98:	10f0                	addi	a2,sp,108
  9a:	0000                	unimp
  9c:	0000                	unimp
	...

Disassembly of section .text:

000000a0 <__riscv_save_0>:
      a0:	1151                	addi	sp,sp,-12
      a2:	c026                	sw	s1,0(sp)
      a4:	c222                	sw	s0,4(sp)
      a6:	c406                	sw	ra,8(sp)
      a8:	8282                	jr	t0

000000aa <__riscv_restore_0>:
      aa:	4482                	lw	s1,0(sp)
      ac:	4412                	lw	s0,4(sp)
      ae:	40a2                	lw	ra,8(sp)
      b0:	0131                	addi	sp,sp,12
      b2:	8082                	ret

000000b4 <__mulsi3>:
      b4:	862a                	mv	a2,a0
      b6:	4501                	li	a0,0
      b8:	0015f693          	andi	a3,a1,1
      bc:	c291                	beqz	a3,c0 <__mulsi3+0xc>
      be:	9532                	add	a0,a0,a2
      c0:	8185                	srli	a1,a1,0x1
      c2:	0606                	slli	a2,a2,0x1
      c4:	f9f5                	bnez	a1,b8 <__mulsi3+0x4>
      c6:	8082                	ret
      c8:	0000                	unimp
	...

000000cc <__divsi3>:
      cc:	02054e63          	bltz	a0,108 <__umodsi3+0x8>
      d0:	0405c363          	bltz	a1,116 <__umodsi3+0x16>

000000d4 <__udivsi3>:
      d4:	862e                	mv	a2,a1
      d6:	85aa                	mv	a1,a0
      d8:	557d                	li	a0,-1
      da:	c215                	beqz	a2,fe <__udivsi3+0x2a>
      dc:	4685                	li	a3,1
      de:	00b67863          	bgeu	a2,a1,ee <__udivsi3+0x1a>
      e2:	00c05663          	blez	a2,ee <__udivsi3+0x1a>
      e6:	0606                	slli	a2,a2,0x1
      e8:	0686                	slli	a3,a3,0x1
      ea:	feb66ce3          	bltu	a2,a1,e2 <__udivsi3+0xe>
      ee:	4501                	li	a0,0
      f0:	00c5e463          	bltu	a1,a2,f8 <__udivsi3+0x24>
      f4:	8d91                	sub	a1,a1,a2
      f6:	8d55                	or	a0,a0,a3
      f8:	8285                	srli	a3,a3,0x1
      fa:	8205                	srli	a2,a2,0x1
      fc:	faf5                	bnez	a3,f0 <__udivsi3+0x1c>
      fe:	8082                	ret

00000100 <__umodsi3>:
     100:	8286                	mv	t0,ra
     102:	3fc9                	jal	d4 <__udivsi3>
     104:	852e                	mv	a0,a1
     106:	8282                	jr	t0
     108:	40a00533          	neg	a0,a0
     10c:	0005d763          	bgez	a1,11a <__umodsi3+0x1a>
     110:	40b005b3          	neg	a1,a1
     114:	b7c1                	j	d4 <__udivsi3>
     116:	40b005b3          	neg	a1,a1
     11a:	8286                	mv	t0,ra
     11c:	3f65                	jal	d4 <__udivsi3>
     11e:	40a00533          	neg	a0,a0
     122:	8282                	jr	t0

00000124 <__modsi3>:
     124:	8286                	mv	t0,ra
     126:	0005c763          	bltz	a1,134 <__modsi3+0x10>
     12a:	00054963          	bltz	a0,13c <__modsi3+0x18>
     12e:	375d                	jal	d4 <__udivsi3>
     130:	852e                	mv	a0,a1
     132:	8282                	jr	t0
     134:	40b005b3          	neg	a1,a1
     138:	fe055be3          	bgez	a0,12e <__modsi3+0xa>
     13c:	40a00533          	neg	a0,a0
     140:	3f51                	jal	d4 <__udivsi3>
     142:	40b00533          	neg	a0,a1
     146:	8282                	jr	t0
	...

0000014a <NMI_Handler>:
     14a:	a001                	j	14a <NMI_Handler>

0000014c <HardFault_Handler>:
     14c:	a001                	j	14c <HardFault_Handler>

0000014e <GPIO_INITZ>:
     14e:	f53ff2ef          	jal	t0,a0 <__riscv_save_0>
     152:	1151                	addi	sp,sp,-12
     154:	4585                	li	a1,1
     156:	4541                	li	a0,16
     158:	c002                	sw	zero,0(sp)
     15a:	c202                	sw	zero,4(sp)
     15c:	c402                	sw	zero,8(sp)
     15e:	3c7010ef          	jal	ra,1d24 <RCC_APB2PeriphClockCmd>
     162:	47c1                	li	a5,16
     164:	807c                	sh	a5,0(sp)
     166:	47c1                	li	a5,16
     168:	c43e                	sw	a5,8(sp)
     16a:	858a                	mv	a1,sp
     16c:	4789                	li	a5,2
     16e:	40011537          	lui	a0,0x40011
     172:	c23e                	sw	a5,4(sp)
     174:	7be010ef          	jal	ra,1932 <GPIO_Init>
     178:	0131                	addi	sp,sp,12
     17a:	bf05                	j	aa <__riscv_restore_0>

0000017c <LED_SendBit>:
     17c:	400117b7          	lui	a5,0x40011
     180:	4741                	li	a4,16
     182:	cb98                	sw	a4,16(a5)
     184:	c505                	beqz	a0,1ac <LED_SendBit+0x30>
     186:	0001                	nop
     188:	0001                	nop
     18a:	0001                	nop
     18c:	0001                	nop
     18e:	0001                	nop
     190:	0001                	nop
     192:	0001                	nop
     194:	0001                	nop
     196:	0001                	nop
     198:	0001                	nop
     19a:	0001                	nop
     19c:	0001                	nop
     19e:	0001                	nop
     1a0:	0001                	nop
     1a2:	0001                	nop
     1a4:	0001                	nop
     1a6:	0001                	nop
     1a8:	cbd8                	sw	a4,20(a5)
     1aa:	8082                	ret
     1ac:	0001                	nop
     1ae:	0001                	nop
     1b0:	0001                	nop
     1b2:	0001                	nop
     1b4:	0001                	nop
     1b6:	0001                	nop
     1b8:	0001                	nop
     1ba:	cbd8                	sw	a4,20(a5)
     1bc:	0001                	nop
     1be:	0001                	nop
     1c0:	0001                	nop
     1c2:	0001                	nop
     1c4:	0001                	nop
     1c6:	0001                	nop
     1c8:	0001                	nop
     1ca:	0001                	nop
     1cc:	0001                	nop
     1ce:	0001                	nop
     1d0:	8082                	ret

000001d2 <LED_SendColour>:
     1d2:	ecfff2ef          	jal	t0,a0 <__riscv_save_0>
     1d6:	1161                	addi	sp,sp,-8
     1d8:	842a                	mv	s0,a0
     1da:	84b2                	mv	s1,a2
     1dc:	479d                	li	a5,7
     1de:	40f5d533          	sra	a0,a1,a5
     1e2:	8905                	andi	a0,a0,1
     1e4:	c23e                	sw	a5,4(sp)
     1e6:	c02e                	sw	a1,0(sp)
     1e8:	3f51                	jal	17c <LED_SendBit>
     1ea:	4792                	lw	a5,4(sp)
     1ec:	577d                	li	a4,-1
     1ee:	4582                	lw	a1,0(sp)
     1f0:	17fd                	addi	a5,a5,-1
     1f2:	fee796e3          	bne	a5,a4,1de <LED_SendColour+0xc>
     1f6:	479d                	li	a5,7
     1f8:	40f45533          	sra	a0,s0,a5
     1fc:	8905                	andi	a0,a0,1
     1fe:	c03e                	sw	a5,0(sp)
     200:	3fb5                	jal	17c <LED_SendBit>
     202:	4782                	lw	a5,0(sp)
     204:	577d                	li	a4,-1
     206:	17fd                	addi	a5,a5,-1
     208:	fee798e3          	bne	a5,a4,1f8 <LED_SendColour+0x26>
     20c:	441d                	li	s0,7
     20e:	4084d533          	sra	a0,s1,s0
     212:	8905                	andi	a0,a0,1
     214:	37a5                	jal	17c <LED_SendBit>
     216:	147d                	addi	s0,s0,-1
     218:	57fd                	li	a5,-1
     21a:	fef41ae3          	bne	s0,a5,20e <LED_SendColour+0x3c>
     21e:	0121                	addi	sp,sp,8
     220:	b569                	j	aa <__riscv_restore_0>

00000222 <SHOWTIME>:
     222:	e7fff2ef          	jal	t0,a0 <__riscv_save_0>
     226:	842a                	mv	s0,a0
     228:	0b450493          	addi	s1,a0,180 # 400110b4 <__global_pointer$+0x2001086c>
     22c:	2030                	lbu	a2,2(s0)
     22e:	300c                	lbu	a1,1(s0)
     230:	2008                	lbu	a0,0(s0)
     232:	040d                	addi	s0,s0,3
     234:	3f79                	jal	1d2 <LED_SendColour>
     236:	fe941be3          	bne	s0,s1,22c <SHOWTIME+0xa>
     23a:	03200513          	li	a0,50
     23e:	3f3010ef          	jal	ra,1e30 <Delay_Us>
     242:	b5a5                	j	aa <__riscv_restore_0>

00000244 <clear>:
     244:	200007b7          	lui	a5,0x20000
     248:	04878793          	addi	a5,a5,72 # 20000048 <_edata>
     24c:	0b478713          	addi	a4,a5,180
     250:	00078023          	sb	zero,0(a5)
     254:	000780a3          	sb	zero,1(a5)
     258:	00078123          	sb	zero,2(a5)
     25c:	078d                	addi	a5,a5,3
     25e:	fee799e3          	bne	a5,a4,250 <clear+0xc>
     262:	8082                	ret

00000264 <LED_OFF>:
     264:	e3dff2ef          	jal	t0,a0 <__riscv_save_0>
     268:	10000413          	li	s0,256
     26c:	4601                	li	a2,0
     26e:	4581                	li	a1,0
     270:	4501                	li	a0,0
     272:	147d                	addi	s0,s0,-1
     274:	3fb9                	jal	1d2 <LED_SendColour>
     276:	f87d                	bnez	s0,26c <LED_OFF+0x8>
     278:	03200513          	li	a0,50
     27c:	3b5010ef          	jal	ra,1e30 <Delay_Us>
     280:	b52d                	j	aa <__riscv_restore_0>

00000282 <Wheel>:
     282:	05400793          	li	a5,84
     286:	8b418713          	addi	a4,gp,-1868 # 200000fc <c.4826>
     28a:	02a7e163          	bltu	a5,a0,2ac <Wheel+0x2a>
     28e:	00151793          	slli	a5,a0,0x1
     292:	97aa                	add	a5,a5,a0
     294:	a31c                	sb	a5,0(a4)
     296:	00251793          	slli	a5,a0,0x2
     29a:	8d1d                	sub	a0,a0,a5
     29c:	fff50793          	addi	a5,a0,-1
     2a0:	b31c                	sb	a5,1(a4)
     2a2:	00070123          	sb	zero,2(a4)
     2a6:	8b418513          	addi	a0,gp,-1868 # 200000fc <c.4826>
     2aa:	8082                	ret
     2ac:	0a900793          	li	a5,169
     2b0:	02a7e363          	bltu	a5,a0,2d6 <Wheel+0x54>
     2b4:	fab50793          	addi	a5,a0,-85
     2b8:	0ff7f793          	andi	a5,a5,255
     2bc:	00279613          	slli	a2,a5,0x2
     2c0:	40c78633          	sub	a2,a5,a2
     2c4:	167d                	addi	a2,a2,-1
     2c6:	00179513          	slli	a0,a5,0x1
     2ca:	a310                	sb	a2,0(a4)
     2cc:	000700a3          	sb	zero,1(a4)
     2d0:	97aa                	add	a5,a5,a0
     2d2:	a33c                	sb	a5,2(a4)
     2d4:	bfc9                	j	2a6 <Wheel+0x24>
     2d6:	05650793          	addi	a5,a0,86
     2da:	0ff7f793          	andi	a5,a5,255
     2de:	00179613          	slli	a2,a5,0x1
     2e2:	00279513          	slli	a0,a5,0x2
     2e6:	963e                	add	a2,a2,a5
     2e8:	8f89                	sub	a5,a5,a0
     2ea:	00070023          	sb	zero,0(a4)
     2ee:	b310                	sb	a2,1(a4)
     2f0:	17fd                	addi	a5,a5,-1
     2f2:	b7c5                	j	2d2 <Wheel+0x50>

000002f4 <delay_nd>:
     2f4:	8b81a783          	lw	a5,-1864(gp) # 20000100 <int_state.4867>
     2f8:	8b818713          	addi	a4,gp,-1864 # 20000100 <int_state.4867>
     2fc:	8d1d                	sub	a0,a0,a5
     2fe:	00a05663          	blez	a0,30a <delay_nd+0x16>
     302:	00178513          	addi	a0,a5,1
     306:	c308                	sw	a0,0(a4)
     308:	8082                	ret
     30a:	4501                	li	a0,0
     30c:	bfed                	j	306 <delay_nd+0x12>

0000030e <fadeIn_nd>:
     30e:	d93ff2ef          	jal	t0,a0 <__riscv_save_0>
     312:	8bc1a483          	lw	s1,-1860(gp) # 20000104 <int_state.4871>
     316:	1171                	addi	sp,sp,-4
     318:	85aa                	mv	a1,a0
     31a:	c02a                	sw	a0,0(sp)
     31c:	8526                	mv	a0,s1
     31e:	337d                	jal	cc <__divsi3>
     320:	200007b7          	lui	a5,0x20000
     324:	4682                	lw	a3,0(sp)
     326:	04878793          	addi	a5,a5,72 # 20000048 <_edata>
     32a:	0b478613          	addi	a2,a5,180
     32e:	8bc18713          	addi	a4,gp,-1860 # 20000104 <int_state.4871>
     332:	0ff57513          	andi	a0,a0,255
     336:	a388                	sb	a0,0(a5)
     338:	b388                	sb	a0,1(a5)
     33a:	a3a8                	sb	a0,2(a5)
     33c:	078d                	addi	a5,a5,3
     33e:	fec79ce3          	bne	a5,a2,336 <fadeIn_nd+0x28>
     342:	0485                	addi	s1,s1,1
     344:	0696                	slli	a3,a3,0x5
     346:	0096c663          	blt	a3,s1,352 <fadeIn_nd+0x44>
     34a:	c304                	sw	s1,0(a4)
     34c:	4308                	lw	a0,0(a4)
     34e:	0111                	addi	sp,sp,4
     350:	bba9                	j	aa <__riscv_restore_0>
     352:	00072023          	sw	zero,0(a4)
     356:	bfdd                	j	34c <fadeIn_nd+0x3e>

00000358 <fadeOut_nd>:
     358:	d49ff2ef          	jal	t0,a0 <__riscv_save_0>
     35c:	8c01a483          	lw	s1,-1856(gp) # 20000108 <int_state.4880>
     360:	1171                	addi	sp,sp,-4
     362:	85aa                	mv	a1,a0
     364:	c02a                	sw	a0,0(sp)
     366:	8526                	mv	a0,s1
     368:	3395                	jal	cc <__divsi3>
     36a:	200007b7          	lui	a5,0x20000
     36e:	02000713          	li	a4,32
     372:	4602                	lw	a2,0(sp)
     374:	04878793          	addi	a5,a5,72 # 20000048 <_edata>
     378:	40a70533          	sub	a0,a4,a0
     37c:	0b478593          	addi	a1,a5,180
     380:	8c018693          	addi	a3,gp,-1856 # 20000108 <int_state.4880>
     384:	0ff57513          	andi	a0,a0,255
     388:	a388                	sb	a0,0(a5)
     38a:	b388                	sb	a0,1(a5)
     38c:	a3a8                	sb	a0,2(a5)
     38e:	078d                	addi	a5,a5,3
     390:	feb79ce3          	bne	a5,a1,388 <fadeOut_nd+0x30>
     394:	0485                	addi	s1,s1,1
     396:	0616                	slli	a2,a2,0x5
     398:	00964663          	blt	a2,s1,3a4 <fadeOut_nd+0x4c>
     39c:	c284                	sw	s1,0(a3)
     39e:	4288                	lw	a0,0(a3)
     3a0:	0111                	addi	sp,sp,4
     3a2:	b321                	j	aa <__riscv_restore_0>
     3a4:	0006a023          	sw	zero,0(a3)
     3a8:	bfdd                	j	39e <fadeOut_nd+0x46>

000003aa <eight_nd>:
     3aa:	cf7ff2ef          	jal	t0,a0 <__riscv_save_0>
     3ae:	8c41a403          	lw	s0,-1852(gp) # 2000010c <int_state.4892>
     3b2:	1151                	addi	sp,sp,-12
     3b4:	c42a                	sw	a0,8(sp)
     3b6:	84ae                	mv	s1,a1
     3b8:	8522                	mv	a0,s0
     3ba:	85b6                	mv	a1,a3
     3bc:	c036                	sw	a3,0(sp)
     3be:	c232                	sw	a2,4(sp)
     3c0:	3331                	jal	cc <__divsi3>
     3c2:	01f55593          	srli	a1,a0,0x1f
     3c6:	952e                	add	a0,a0,a1
     3c8:	00147593          	andi	a1,s0,1
     3cc:	8505                	srai	a0,a0,0x1
     3ce:	8c418793          	addi	a5,gp,-1852 # 2000010c <int_state.4892>
     3d2:	4682                	lw	a3,0(sp)
     3d4:	ed95                	bnez	a1,410 <eight_nd+0x66>
     3d6:	03b00593          	li	a1,59
     3da:	00a5ef63          	bltu	a1,a0,3f8 <eight_nd+0x4e>
     3de:	00151593          	slli	a1,a0,0x1
     3e2:	95aa                	add	a1,a1,a0
     3e4:	4722                	lw	a4,8(sp)
     3e6:	20000537          	lui	a0,0x20000
     3ea:	4612                	lw	a2,4(sp)
     3ec:	04850513          	addi	a0,a0,72 # 20000048 <_edata>
     3f0:	952e                	add	a0,a0,a1
     3f2:	a118                	sb	a4,0(a0)
     3f4:	b104                	sb	s1,1(a0)
     3f6:	a130                	sb	a2,2(a0)
     3f8:	00469713          	slli	a4,a3,0x4
     3fc:	40d706b3          	sub	a3,a4,a3
     400:	0405                	addi	s0,s0,1
     402:	068e                	slli	a3,a3,0x3
     404:	0286c963          	blt	a3,s0,436 <eight_nd+0x8c>
     408:	c380                	sw	s0,0(a5)
     40a:	4388                	lw	a0,0(a5)
     40c:	0131                	addi	sp,sp,12
     40e:	b971                	j	aa <__riscv_restore_0>
     410:	03b00713          	li	a4,59
     414:	fea762e3          	bltu	a4,a0,3f8 <eight_nd+0x4e>
     418:	00151713          	slli	a4,a0,0x1
     41c:	972a                	add	a4,a4,a0
     41e:	20000537          	lui	a0,0x20000
     422:	04850513          	addi	a0,a0,72 # 20000048 <_edata>
     426:	953a                	add	a0,a0,a4
     428:	00050023          	sb	zero,0(a0)
     42c:	000500a3          	sb	zero,1(a0)
     430:	00050123          	sb	zero,2(a0)
     434:	b7d1                	j	3f8 <eight_nd+0x4e>
     436:	0007a023          	sw	zero,0(a5)
     43a:	bfc1                	j	40a <eight_nd+0x60>

0000043c <eight2_nd>:
     43c:	c65ff2ef          	jal	t0,a0 <__riscv_save_0>
     440:	8c81a403          	lw	s0,-1848(gp) # 20000110 <int_state.4900>
     444:	1151                	addi	sp,sp,-12
     446:	c42a                	sw	a0,8(sp)
     448:	84ae                	mv	s1,a1
     44a:	8522                	mv	a0,s0
     44c:	85b6                	mv	a1,a3
     44e:	c036                	sw	a3,0(sp)
     450:	c232                	sw	a2,4(sp)
     452:	39ad                	jal	cc <__divsi3>
     454:	03b00593          	li	a1,59
     458:	8c818793          	addi	a5,gp,-1848 # 20000110 <int_state.4900>
     45c:	4682                	lw	a3,0(sp)
     45e:	00a5ef63          	bltu	a1,a0,47c <eight2_nd+0x40>
     462:	00151593          	slli	a1,a0,0x1
     466:	95aa                	add	a1,a1,a0
     468:	4722                	lw	a4,8(sp)
     46a:	20000537          	lui	a0,0x20000
     46e:	4612                	lw	a2,4(sp)
     470:	04850513          	addi	a0,a0,72 # 20000048 <_edata>
     474:	952e                	add	a0,a0,a1
     476:	a118                	sb	a4,0(a0)
     478:	b104                	sb	s1,1(a0)
     47a:	a130                	sb	a2,2(a0)
     47c:	00469713          	slli	a4,a3,0x4
     480:	40d706b3          	sub	a3,a4,a3
     484:	0405                	addi	s0,s0,1
     486:	068a                	slli	a3,a3,0x2
     488:	0086c663          	blt	a3,s0,494 <eight2_nd+0x58>
     48c:	c380                	sw	s0,0(a5)
     48e:	4388                	lw	a0,0(a5)
     490:	0131                	addi	sp,sp,12
     492:	b921                	j	aa <__riscv_restore_0>
     494:	0007a023          	sw	zero,0(a5)
     498:	bfdd                	j	48e <eight2_nd+0x52>

0000049a <eight3_nd>:
     49a:	c07ff2ef          	jal	t0,a0 <__riscv_save_0>
     49e:	8cc1a403          	lw	s0,-1844(gp) # 20000114 <int_state.4909>
     4a2:	1141                	addi	sp,sp,-16
     4a4:	c62e                	sw	a1,12(sp)
     4a6:	84aa                	mv	s1,a0
     4a8:	85b6                	mv	a1,a3
     4aa:	8522                	mv	a0,s0
     4ac:	c432                	sw	a2,8(sp)
     4ae:	c236                	sw	a3,4(sp)
     4b0:	3931                	jal	cc <__divsi3>
     4b2:	20000737          	lui	a4,0x20000
     4b6:	04870793          	addi	a5,a4,72 # 20000048 <_edata>
     4ba:	c03e                	sw	a5,0(sp)
     4bc:	03b00593          	li	a1,59
     4c0:	8cc18313          	addi	t1,gp,-1844 # 20000114 <int_state.4909>
     4c4:	00151793          	slli	a5,a0,0x1
     4c8:	4692                	lw	a3,4(sp)
     4ca:	4622                	lw	a2,8(sp)
     4cc:	42b2                	lw	t0,12(sp)
     4ce:	00a5ea63          	bltu	a1,a0,4e2 <eight3_nd+0x48>
     4d2:	4702                	lw	a4,0(sp)
     4d4:	00a785b3          	add	a1,a5,a0
     4d8:	95ba                	add	a1,a1,a4
     4da:	a184                	sb	s1,0(a1)
     4dc:	005580a3          	sb	t0,1(a1)
     4e0:	a1b0                	sb	a2,2(a1)
     4e2:	4702                	lw	a4,0(sp)
     4e4:	97aa                	add	a5,a5,a0
     4e6:	4585                	li	a1,1
     4e8:	97ba                	add	a5,a5,a4
     4ea:	fff58393          	addi	t2,a1,-1
     4ee:	8085                	srli	s1,s1,0x1
     4f0:	0012d293          	srli	t0,t0,0x1
     4f4:	8205                	srli	a2,a2,0x1
     4f6:	00a3de63          	bge	t2,a0,512 <eight3_nd+0x78>
     4fa:	40b503b3          	sub	t2,a0,a1
     4fe:	03b00713          	li	a4,59
     502:	00776863          	bltu	a4,t2,512 <eight3_nd+0x78>
     506:	fe978ea3          	sb	s1,-3(a5)
     50a:	fe578f23          	sb	t0,-2(a5)
     50e:	fec78fa3          	sb	a2,-1(a5)
     512:	0585                	addi	a1,a1,1
     514:	4711                	li	a4,4
     516:	17f5                	addi	a5,a5,-3
     518:	fce599e3          	bne	a1,a4,4ea <eight3_nd+0x50>
     51c:	478d                	li	a5,3
     51e:	02a7d363          	bge	a5,a0,544 <eight3_nd+0xaa>
     522:	1571                	addi	a0,a0,-4
     524:	03b00793          	li	a5,59
     528:	00a7ce63          	blt	a5,a0,544 <eight3_nd+0xaa>
     52c:	00151793          	slli	a5,a0,0x1
     530:	953e                	add	a0,a0,a5
     532:	4782                	lw	a5,0(sp)
     534:	00a78733          	add	a4,a5,a0
     538:	00070023          	sb	zero,0(a4)
     53c:	000700a3          	sb	zero,1(a4)
     540:	00070123          	sb	zero,2(a4)
     544:	00669793          	slli	a5,a3,0x6
     548:	0405                	addi	s0,s0,1
     54a:	40d786b3          	sub	a3,a5,a3
     54e:	0086c863          	blt	a3,s0,55e <eight3_nd+0xc4>
     552:	00832023          	sw	s0,0(t1)
     556:	00032503          	lw	a0,0(t1)
     55a:	0141                	addi	sp,sp,16
     55c:	b6b9                	j	aa <__riscv_restore_0>
     55e:	00032023          	sw	zero,0(t1)
     562:	bfd5                	j	556 <eight3_nd+0xbc>

00000564 <eight3b_nd>:
     564:	b3dff2ef          	jal	t0,a0 <__riscv_save_0>
     568:	8d01a783          	lw	a5,-1840(gp) # 20000118 <int_state.4925>
     56c:	1151                	addi	sp,sp,-12
     56e:	842a                	mv	s0,a0
     570:	84ae                	mv	s1,a1
     572:	853e                	mv	a0,a5
     574:	85b6                	mv	a1,a3
     576:	c432                	sw	a2,8(sp)
     578:	c036                	sw	a3,0(sp)
     57a:	c23e                	sw	a5,4(sp)
     57c:	3e81                	jal	cc <__divsi3>
     57e:	03b00713          	li	a4,59
     582:	200007b7          	lui	a5,0x20000
     586:	40a706b3          	sub	a3,a4,a0
     58a:	8d018313          	addi	t1,gp,-1840 # 20000118 <int_state.4925>
     58e:	04878793          	addi	a5,a5,72 # 20000048 <_edata>
     592:	4622                	lw	a2,8(sp)
     594:	00d76963          	bltu	a4,a3,5a6 <eight3b_nd+0x42>
     598:	00169713          	slli	a4,a3,0x1
     59c:	9736                	add	a4,a4,a3
     59e:	973e                	add	a4,a4,a5
     5a0:	a300                	sb	s0,0(a4)
     5a2:	b304                	sb	s1,1(a4)
     5a4:	a330                	sb	a2,2(a4)
     5a6:	00251713          	slli	a4,a0,0x2
     5aa:	40e50733          	sub	a4,a0,a4
     5ae:	03c00593          	li	a1,60
     5b2:	973e                	add	a4,a4,a5
     5b4:	4681                	li	a3,0
     5b6:	8d89                	sub	a1,a1,a0
     5b8:	03b00293          	li	t0,59
     5bc:	8005                	srli	s0,s0,0x1
     5be:	8085                	srli	s1,s1,0x1
     5c0:	8205                	srli	a2,a2,0x1
     5c2:	00a6dc63          	bge	a3,a0,5da <eight3b_nd+0x76>
     5c6:	00d583b3          	add	t2,a1,a3
     5ca:	0072e863          	bltu	t0,t2,5da <eight3b_nd+0x76>
     5ce:	0a870a23          	sb	s0,180(a4)
     5d2:	0a970aa3          	sb	s1,181(a4)
     5d6:	0ac70b23          	sb	a2,182(a4)
     5da:	0685                	addi	a3,a3,1
     5dc:	438d                	li	t2,3
     5de:	070d                	addi	a4,a4,3
     5e0:	fc769ee3          	bne	a3,t2,5bc <eight3b_nd+0x58>
     5e4:	02a6d463          	bge	a3,a0,60c <eight3b_nd+0xa8>
     5e8:	03f00713          	li	a4,63
     5ec:	40a70533          	sub	a0,a4,a0
     5f0:	03b00713          	li	a4,59
     5f4:	00a76c63          	bltu	a4,a0,60c <eight3b_nd+0xa8>
     5f8:	00151713          	slli	a4,a0,0x1
     5fc:	953a                	add	a0,a0,a4
     5fe:	97aa                	add	a5,a5,a0
     600:	00078023          	sb	zero,0(a5)
     604:	000780a3          	sb	zero,1(a5)
     608:	00078123          	sb	zero,2(a5)
     60c:	4702                	lw	a4,0(sp)
     60e:	4792                	lw	a5,4(sp)
     610:	00671693          	slli	a3,a4,0x6
     614:	0785                	addi	a5,a5,1
     616:	8e99                	sub	a3,a3,a4
     618:	00f6c863          	blt	a3,a5,628 <eight3b_nd+0xc4>
     61c:	00f32023          	sw	a5,0(t1)
     620:	00032503          	lw	a0,0(t1)
     624:	0131                	addi	sp,sp,12
     626:	b451                	j	aa <__riscv_restore_0>
     628:	00032023          	sw	zero,0(t1)
     62c:	bfd5                	j	620 <eight3b_nd+0xbc>

0000062e <fill1_nd>:
     62e:	a73ff2ef          	jal	t0,a0 <__riscv_save_0>
     632:	8d41a403          	lw	s0,-1836(gp) # 2000011c <int_state.4940>
     636:	1151                	addi	sp,sp,-12
     638:	c42a                	sw	a0,8(sp)
     63a:	84ae                	mv	s1,a1
     63c:	8522                	mv	a0,s0
     63e:	85b6                	mv	a1,a3
     640:	c232                	sw	a2,4(sp)
     642:	c036                	sw	a3,0(sp)
     644:	3461                	jal	cc <__divsi3>
     646:	03b00593          	li	a1,59
     64a:	8d418713          	addi	a4,gp,-1836 # 2000011c <int_state.4940>
     64e:	4682                	lw	a3,0(sp)
     650:	4612                	lw	a2,4(sp)
     652:	47a2                	lw	a5,8(sp)
     654:	00a5ee63          	bltu	a1,a0,670 <fill1_nd+0x42>
     658:	00151593          	slli	a1,a0,0x1
     65c:	00a58333          	add	t1,a1,a0
     660:	200005b7          	lui	a1,0x20000
     664:	04858593          	addi	a1,a1,72 # 20000048 <_edata>
     668:	959a                	add	a1,a1,t1
     66a:	a19c                	sb	a5,0(a1)
     66c:	b184                	sb	s1,1(a1)
     66e:	a1b0                	sb	a2,2(a1)
     670:	0579                	addi	a0,a0,30
     672:	03b00593          	li	a1,59
     676:	00a5ed63          	bltu	a1,a0,690 <fill1_nd+0x62>
     67a:	00151593          	slli	a1,a0,0x1
     67e:	95aa                	add	a1,a1,a0
     680:	20000537          	lui	a0,0x20000
     684:	04850513          	addi	a0,a0,72 # 20000048 <_edata>
     688:	952e                	add	a0,a0,a1
     68a:	a11c                	sb	a5,0(a0)
     68c:	b104                	sb	s1,1(a0)
     68e:	a130                	sb	a2,2(a0)
     690:	00469793          	slli	a5,a3,0x4
     694:	40d786b3          	sub	a3,a5,a3
     698:	0405                	addi	s0,s0,1
     69a:	0686                	slli	a3,a3,0x1
     69c:	0086c663          	blt	a3,s0,6a8 <fill1_nd+0x7a>
     6a0:	c300                	sw	s0,0(a4)
     6a2:	4308                	lw	a0,0(a4)
     6a4:	0131                	addi	sp,sp,12
     6a6:	b411                	j	aa <__riscv_restore_0>
     6a8:	00072023          	sw	zero,0(a4)
     6ac:	bfdd                	j	6a2 <fill1_nd+0x74>

000006ae <fill2_nd>:
     6ae:	9f3ff2ef          	jal	t0,a0 <__riscv_save_0>
     6b2:	8d81a403          	lw	s0,-1832(gp) # 20000120 <int_state.4948>
     6b6:	1151                	addi	sp,sp,-12
     6b8:	c42a                	sw	a0,8(sp)
     6ba:	84ae                	mv	s1,a1
     6bc:	8522                	mv	a0,s0
     6be:	85b6                	mv	a1,a3
     6c0:	c232                	sw	a2,4(sp)
     6c2:	c036                	sw	a3,0(sp)
     6c4:	3421                	jal	cc <__divsi3>
     6c6:	03b00793          	li	a5,59
     6ca:	40a78333          	sub	t1,a5,a0
     6ce:	8d818593          	addi	a1,gp,-1832 # 20000120 <int_state.4948>
     6d2:	4682                	lw	a3,0(sp)
     6d4:	4612                	lw	a2,4(sp)
     6d6:	4722                	lw	a4,8(sp)
     6d8:	0067ed63          	bltu	a5,t1,6f2 <fill2_nd+0x44>
     6dc:	00131793          	slli	a5,t1,0x1
     6e0:	933e                	add	t1,t1,a5
     6e2:	200007b7          	lui	a5,0x20000
     6e6:	04878793          	addi	a5,a5,72 # 20000048 <_edata>
     6ea:	979a                	add	a5,a5,t1
     6ec:	a398                	sb	a4,0(a5)
     6ee:	b384                	sb	s1,1(a5)
     6f0:	a3b0                	sb	a2,2(a5)
     6f2:	47f5                	li	a5,29
     6f4:	40a78533          	sub	a0,a5,a0
     6f8:	03b00793          	li	a5,59
     6fc:	00a7ed63          	bltu	a5,a0,716 <fill2_nd+0x68>
     700:	00151793          	slli	a5,a0,0x1
     704:	97aa                	add	a5,a5,a0
     706:	20000537          	lui	a0,0x20000
     70a:	04850513          	addi	a0,a0,72 # 20000048 <_edata>
     70e:	953e                	add	a0,a0,a5
     710:	a118                	sb	a4,0(a0)
     712:	b104                	sb	s1,1(a0)
     714:	a130                	sb	a2,2(a0)
     716:	00469793          	slli	a5,a3,0x4
     71a:	40d786b3          	sub	a3,a5,a3
     71e:	0405                	addi	s0,s0,1
     720:	0686                	slli	a3,a3,0x1
     722:	0086c663          	blt	a3,s0,72e <fill2_nd+0x80>
     726:	c180                	sw	s0,0(a1)
     728:	4188                	lw	a0,0(a1)
     72a:	0131                	addi	sp,sp,12
     72c:	babd                	j	aa <__riscv_restore_0>
     72e:	0005a023          	sw	zero,0(a1)
     732:	bfdd                	j	728 <fill2_nd+0x7a>

00000734 <theaterChase2_nd>:
     734:	96dff2ef          	jal	t0,a0 <__riscv_save_0>
     738:	8dc1a483          	lw	s1,-1828(gp) # 20000124 <int_state.4958>
     73c:	1111                	addi	sp,sp,-28
     73e:	cc2a                	sw	a0,24(sp)
     740:	ca2e                	sw	a1,20(sp)
     742:	8526                	mv	a0,s1
     744:	85b6                	mv	a1,a3
     746:	c832                	sw	a2,16(sp)
     748:	c63e                	sw	a5,12(sp)
     74a:	c436                	sw	a3,8(sp)
     74c:	c03a                	sw	a4,0(sp)
     74e:	3abd                	jal	cc <__divsi3>
     750:	c22a                	sw	a0,4(sp)
     752:	3ccd                	jal	244 <clear>
     754:	4702                	lw	a4,0(sp)
     756:	4512                	lw	a0,4(sp)
     758:	8dc18413          	addi	s0,gp,-1828 # 20000124 <int_state.4958>
     75c:	85ba                	mv	a1,a4
     75e:	32d9                	jal	124 <__modsi3>
     760:	4702                	lw	a4,0(sp)
     762:	00151593          	slli	a1,a0,0x1
     766:	00a580b3          	add	ra,a1,a0
     76a:	46a2                	lw	a3,8(sp)
     76c:	200005b7          	lui	a1,0x20000
     770:	47b2                	lw	a5,12(sp)
     772:	4642                	lw	a2,16(sp)
     774:	42d2                	lw	t0,20(sp)
     776:	4362                	lw	t1,24(sp)
     778:	00171393          	slli	t2,a4,0x1
     77c:	04858593          	addi	a1,a1,72 # 20000048 <_edata>
     780:	9586                	add	a1,a1,ra
     782:	93ba                	add	t2,t2,a4
     784:	03b00093          	li	ra,59
     788:	02a0d063          	bge	ra,a0,7a8 <theaterChase2_nd+0x74>
     78c:	853e                	mv	a0,a5
     78e:	85b6                	mv	a1,a3
     790:	3215                	jal	b4 <__mulsi3>
     792:	00151793          	slli	a5,a0,0x1
     796:	0485                	addi	s1,s1,1
     798:	953e                	add	a0,a0,a5
     79a:	02954163          	blt	a0,s1,7bc <theaterChase2_nd+0x88>
     79e:	c004                	sw	s1,0(s0)
     7a0:	4008                	lw	a0,0(s0)
     7a2:	0171                	addi	sp,sp,28
     7a4:	907ff06f          	j	aa <__riscv_restore_0>
     7a8:	00a0e763          	bltu	ra,a0,7b6 <theaterChase2_nd+0x82>
     7ac:	00658023          	sb	t1,0(a1)
     7b0:	005580a3          	sb	t0,1(a1)
     7b4:	a1b0                	sb	a2,2(a1)
     7b6:	953a                	add	a0,a0,a4
     7b8:	959e                	add	a1,a1,t2
     7ba:	b7f9                	j	788 <theaterChase2_nd+0x54>
     7bc:	00042023          	sw	zero,0(s0)
     7c0:	b7c5                	j	7a0 <theaterChase2_nd+0x6c>

000007c2 <hCurtain1_nd>:
     7c2:	8dfff2ef          	jal	t0,a0 <__riscv_save_0>
     7c6:	8e01a403          	lw	s0,-1824(gp) # 20000128 <int_state.4971>
     7ca:	1151                	addi	sp,sp,-12
     7cc:	c02e                	sw	a1,0(sp)
     7ce:	84aa                	mv	s1,a0
     7d0:	85b6                	mv	a1,a3
     7d2:	8522                	mv	a0,s0
     7d4:	c432                	sw	a2,8(sp)
     7d6:	c236                	sw	a3,4(sp)
     7d8:	8f5ff0ef          	jal	ra,cc <__divsi3>
     7dc:	4622                	lw	a2,8(sp)
     7de:	4692                	lw	a3,4(sp)
     7e0:	200007b7          	lui	a5,0x20000
     7e4:	6289                	lui	t0,0x2
     7e6:	04878793          	addi	a5,a5,72 # 20000048 <_edata>
     7ea:	4581                	li	a1,0
     7ec:	8e018713          	addi	a4,gp,-1824 # 20000128 <int_state.4971>
     7f0:	f5828293          	addi	t0,t0,-168 # 1f58 <led_x_pos>
     7f4:	03c00313          	li	t1,60
     7f8:	00b283b3          	add	t2,t0,a1
     7fc:	0003c383          	lbu	t2,0(t2)
     800:	00754763          	blt	a0,t2,80e <hCurtain1_nd+0x4c>
     804:	4382                	lw	t2,0(sp)
     806:	a384                	sb	s1,0(a5)
     808:	a3b0                	sb	a2,2(a5)
     80a:	007780a3          	sb	t2,1(a5)
     80e:	0585                	addi	a1,a1,1
     810:	078d                	addi	a5,a5,3
     812:	fe6593e3          	bne	a1,t1,7f8 <hCurtain1_nd+0x36>
     816:	0411                	addi	s0,s0,4
     818:	06a2                	slli	a3,a3,0x8
     81a:	0086c763          	blt	a3,s0,828 <hCurtain1_nd+0x66>
     81e:	c300                	sw	s0,0(a4)
     820:	4308                	lw	a0,0(a4)
     822:	0131                	addi	sp,sp,12
     824:	887ff06f          	j	aa <__riscv_restore_0>
     828:	00072023          	sw	zero,0(a4)
     82c:	bfd5                	j	820 <hCurtain1_nd+0x5e>

0000082e <hCurtain2_nd>:
     82e:	873ff2ef          	jal	t0,a0 <__riscv_save_0>
     832:	8e41a403          	lw	s0,-1820(gp) # 2000012c <int_state.4984>
     836:	1151                	addi	sp,sp,-12
     838:	c02e                	sw	a1,0(sp)
     83a:	84aa                	mv	s1,a0
     83c:	85b6                	mv	a1,a3
     83e:	8522                	mv	a0,s0
     840:	c432                	sw	a2,8(sp)
     842:	c236                	sw	a3,4(sp)
     844:	889ff0ef          	jal	ra,cc <__divsi3>
     848:	4622                	lw	a2,8(sp)
     84a:	4692                	lw	a3,4(sp)
     84c:	200007b7          	lui	a5,0x20000
     850:	6289                	lui	t0,0x2
     852:	04878793          	addi	a5,a5,72 # 20000048 <_edata>
     856:	4581                	li	a1,0
     858:	8e418713          	addi	a4,gp,-1820 # 2000012c <int_state.4984>
     85c:	f5828293          	addi	t0,t0,-168 # 1f58 <led_x_pos>
     860:	03c00313          	li	t1,60
     864:	00b283b3          	add	t2,t0,a1
     868:	0003c383          	lbu	t2,0(t2)
     86c:	00754963          	blt	a0,t2,87e <hCurtain2_nd+0x50>
     870:	4382                	lw	t2,0(sp)
     872:	0a9788a3          	sb	s1,177(a5)
     876:	0ac789a3          	sb	a2,179(a5)
     87a:	0a778923          	sb	t2,178(a5)
     87e:	0585                	addi	a1,a1,1
     880:	17f5                	addi	a5,a5,-3
     882:	fe6591e3          	bne	a1,t1,864 <hCurtain2_nd+0x36>
     886:	0411                	addi	s0,s0,4
     888:	06a2                	slli	a3,a3,0x8
     88a:	0086c763          	blt	a3,s0,898 <hCurtain2_nd+0x6a>
     88e:	c300                	sw	s0,0(a4)
     890:	4308                	lw	a0,0(a4)
     892:	0131                	addi	sp,sp,12
     894:	817ff06f          	j	aa <__riscv_restore_0>
     898:	00072023          	sw	zero,0(a4)
     89c:	bfd5                	j	890 <hCurtain2_nd+0x62>

0000089e <vCurtain1_nd>:
     89e:	803ff2ef          	jal	t0,a0 <__riscv_save_0>
     8a2:	8e81a403          	lw	s0,-1816(gp) # 20000130 <int_state.4997>
     8a6:	1151                	addi	sp,sp,-12
     8a8:	c02e                	sw	a1,0(sp)
     8aa:	84aa                	mv	s1,a0
     8ac:	85b6                	mv	a1,a3
     8ae:	8522                	mv	a0,s0
     8b0:	c432                	sw	a2,8(sp)
     8b2:	c236                	sw	a3,4(sp)
     8b4:	819ff0ef          	jal	ra,cc <__divsi3>
     8b8:	4622                	lw	a2,8(sp)
     8ba:	4692                	lw	a3,4(sp)
     8bc:	200007b7          	lui	a5,0x20000
     8c0:	6289                	lui	t0,0x2
     8c2:	04878793          	addi	a5,a5,72 # 20000048 <_edata>
     8c6:	4581                	li	a1,0
     8c8:	8e818713          	addi	a4,gp,-1816 # 20000130 <int_state.4997>
     8cc:	f9428293          	addi	t0,t0,-108 # 1f94 <led_y_pos>
     8d0:	03c00313          	li	t1,60
     8d4:	00b283b3          	add	t2,t0,a1
     8d8:	0003c383          	lbu	t2,0(t2)
     8dc:	00754763          	blt	a0,t2,8ea <vCurtain1_nd+0x4c>
     8e0:	4382                	lw	t2,0(sp)
     8e2:	a384                	sb	s1,0(a5)
     8e4:	a3b0                	sb	a2,2(a5)
     8e6:	007780a3          	sb	t2,1(a5)
     8ea:	0585                	addi	a1,a1,1
     8ec:	078d                	addi	a5,a5,3
     8ee:	fe6593e3          	bne	a1,t1,8d4 <vCurtain1_nd+0x36>
     8f2:	0411                	addi	s0,s0,4
     8f4:	06a2                	slli	a3,a3,0x8
     8f6:	0086c763          	blt	a3,s0,904 <vCurtain1_nd+0x66>
     8fa:	c300                	sw	s0,0(a4)
     8fc:	4308                	lw	a0,0(a4)
     8fe:	0131                	addi	sp,sp,12
     900:	faaff06f          	j	aa <__riscv_restore_0>
     904:	00072023          	sw	zero,0(a4)
     908:	bfd5                	j	8fc <vCurtain1_nd+0x5e>

0000090a <vCurtain2_nd>:
     90a:	f96ff2ef          	jal	t0,a0 <__riscv_save_0>
     90e:	8ec1a403          	lw	s0,-1812(gp) # 20000134 <int_state.5010>
     912:	1151                	addi	sp,sp,-12
     914:	c02e                	sw	a1,0(sp)
     916:	84aa                	mv	s1,a0
     918:	85b6                	mv	a1,a3
     91a:	8522                	mv	a0,s0
     91c:	c432                	sw	a2,8(sp)
     91e:	c236                	sw	a3,4(sp)
     920:	facff0ef          	jal	ra,cc <__divsi3>
     924:	4622                	lw	a2,8(sp)
     926:	4692                	lw	a3,4(sp)
     928:	200007b7          	lui	a5,0x20000
     92c:	6289                	lui	t0,0x2
     92e:	04878793          	addi	a5,a5,72 # 20000048 <_edata>
     932:	4581                	li	a1,0
     934:	8ec18713          	addi	a4,gp,-1812 # 20000134 <int_state.5010>
     938:	f9428293          	addi	t0,t0,-108 # 1f94 <led_y_pos>
     93c:	03c00313          	li	t1,60
     940:	00b283b3          	add	t2,t0,a1
     944:	0003c383          	lbu	t2,0(t2)
     948:	00754963          	blt	a0,t2,95a <vCurtain2_nd+0x50>
     94c:	4382                	lw	t2,0(sp)
     94e:	0a9788a3          	sb	s1,177(a5)
     952:	0ac789a3          	sb	a2,179(a5)
     956:	0a778923          	sb	t2,178(a5)
     95a:	0585                	addi	a1,a1,1
     95c:	17f5                	addi	a5,a5,-3
     95e:	fe6591e3          	bne	a1,t1,940 <vCurtain2_nd+0x36>
     962:	0411                	addi	s0,s0,4
     964:	06a2                	slli	a3,a3,0x8
     966:	0086c763          	blt	a3,s0,974 <vCurtain2_nd+0x6a>
     96a:	c300                	sw	s0,0(a4)
     96c:	4308                	lw	a0,0(a4)
     96e:	0131                	addi	sp,sp,12
     970:	f3aff06f          	j	aa <__riscv_restore_0>
     974:	00072023          	sw	zero,0(a4)
     978:	bfd5                	j	96c <vCurtain2_nd+0x62>

0000097a <rainbow_nd>:
     97a:	f26ff2ef          	jal	t0,a0 <__riscv_save_0>
     97e:	8f01a783          	lw	a5,-1808(gp) # 20000138 <int_state.5019>
     982:	1141                	addi	sp,sp,-16
     984:	c22a                	sw	a0,4(sp)
     986:	85aa                	mv	a1,a0
     988:	853e                	mv	a0,a5
     98a:	c03e                	sw	a5,0(sp)
     98c:	f40ff0ef          	jal	ra,cc <__divsi3>
     990:	200007b7          	lui	a5,0x20000
     994:	c42a                	sw	a0,8(sp)
     996:	04878493          	addi	s1,a5,72 # 20000048 <_edata>
     99a:	4681                	li	a3,0
     99c:	8536                	mv	a0,a3
     99e:	03c00593          	li	a1,60
     9a2:	c636                	sw	a3,12(sp)
     9a4:	f28ff0ef          	jal	ra,cc <__divsi3>
     9a8:	47a2                	lw	a5,8(sp)
     9aa:	048d                	addi	s1,s1,3
     9ac:	953e                	add	a0,a0,a5
     9ae:	0ff57513          	andi	a0,a0,255
     9b2:	8d1ff0ef          	jal	ra,282 <Wheel>
     9b6:	842a                	mv	s0,a0
     9b8:	2108                	lbu	a0,0(a0)
     9ba:	45a9                	li	a1,10
     9bc:	f18ff0ef          	jal	ra,d4 <__udivsi3>
     9c0:	fea48ea3          	sb	a0,-3(s1)
     9c4:	3008                	lbu	a0,1(s0)
     9c6:	45a9                	li	a1,10
     9c8:	f0cff0ef          	jal	ra,d4 <__udivsi3>
     9cc:	fea48f23          	sb	a0,-2(s1)
     9d0:	2028                	lbu	a0,2(s0)
     9d2:	45a9                	li	a1,10
     9d4:	f00ff0ef          	jal	ra,d4 <__udivsi3>
     9d8:	46b2                	lw	a3,12(sp)
     9da:	6791                	lui	a5,0x4
     9dc:	fea48fa3          	sb	a0,-1(s1)
     9e0:	c0078613          	addi	a2,a5,-1024 # 3c00 <_data_lma+0x1c14>
     9e4:	10068693          	addi	a3,a3,256
     9e8:	8f018713          	addi	a4,gp,-1808 # 20000138 <int_state.5019>
     9ec:	fac698e3          	bne	a3,a2,99c <rainbow_nd+0x22>
     9f0:	4782                	lw	a5,0(sp)
     9f2:	4692                	lw	a3,4(sp)
     9f4:	0785                	addi	a5,a5,1
     9f6:	00869413          	slli	s0,a3,0x8
     9fa:	00f44763          	blt	s0,a5,a08 <rainbow_nd+0x8e>
     9fe:	c31c                	sw	a5,0(a4)
     a00:	4308                	lw	a0,0(a4)
     a02:	0141                	addi	sp,sp,16
     a04:	ea6ff06f          	j	aa <__riscv_restore_0>
     a08:	00072023          	sw	zero,0(a4)
     a0c:	bfd5                	j	a00 <rainbow_nd+0x86>

00000a0e <atan2sqrt>:
     a0e:	e92ff2ef          	jal	t0,a0 <__riscv_save_0>
     a12:	7179                	addi	sp,sp,-48
     a14:	c636                	sw	a3,12(sp)
     a16:	87aa                	mv	a5,a0
     a18:	84ae                	mv	s1,a1
     a1a:	0e05c563          	bltz	a1,b04 <atan2sqrt+0xf6>
     a1e:	00060023          	sb	zero,0(a2)
     a22:	0007da63          	bgez	a5,a36 <atan2sqrt+0x28>
     a26:	40f006b3          	neg	a3,a5
     a2a:	221c                	lbu	a5,0(a2)
     a2c:	04078793          	addi	a5,a5,64
     a30:	a21c                	sb	a5,0(a2)
     a32:	87a6                	mv	a5,s1
     a34:	84b6                	mv	s1,a3
     a36:	c402                	sw	zero,8(sp)
     a38:	0097db63          	bge	a5,s1,a4e <atan2sqrt+0x40>
     a3c:	2214                	lbu	a3,0(a2)
     a3e:	4705                	li	a4,1
     a40:	c43a                	sw	a4,8(sp)
     a42:	04068693          	addi	a3,a3,64
     a46:	a214                	sb	a3,0(a2)
     a48:	86be                	mv	a3,a5
     a4a:	87a6                	mv	a5,s1
     a4c:	84b6                	mv	s1,a3
     a4e:	6589                	lui	a1,0x2
     a50:	f3c58713          	addi	a4,a1,-196 # 1f3c <cos_lut>
     a54:	6589                	lui	a1,0x2
     a56:	c83a                	sw	a4,16(sp)
     a58:	fd058713          	addi	a4,a1,-48 # 1fd0 <sin_lut>
     a5c:	4301                	li	t1,0
     a5e:	43c1                	li	t2,16
     a60:	4401                	li	s0,0
     a62:	ca3a                	sw	a4,20(sp)
     a64:	4742                	lw	a4,16(sp)
     a66:	d632                	sw	a2,44(sp)
     a68:	d41e                	sw	t2,40(sp)
     a6a:	006705b3          	add	a1,a4,t1
     a6e:	4198                	lw	a4,0(a1)
     a70:	d01a                	sw	t1,32(sp)
     a72:	ce3e                	sw	a5,28(sp)
     a74:	c03a                	sw	a4,0(sp)
     a76:	4752                	lw	a4,20(sp)
     a78:	006705b3          	add	a1,a4,t1
     a7c:	4198                	lw	a4,0(a1)
     a7e:	85be                	mv	a1,a5
     a80:	40e00533          	neg	a0,a4
     a84:	c23a                	sw	a4,4(sp)
     a86:	e2eff0ef          	jal	ra,b4 <__mulsi3>
     a8a:	cc2a                	sw	a0,24(sp)
     a8c:	4502                	lw	a0,0(sp)
     a8e:	85a6                	mv	a1,s1
     a90:	e24ff0ef          	jal	ra,b4 <__mulsi3>
     a94:	42e2                	lw	t0,24(sp)
     a96:	47f2                	lw	a5,28(sp)
     a98:	5302                	lw	t1,32(sp)
     a9a:	92aa                	add	t0,t0,a0
     a9c:	d216                	sw	t0,36(sp)
     a9e:	53a2                	lw	t2,40(sp)
     aa0:	5632                	lw	a2,44(sp)
     aa2:	0202cc63          	bltz	t0,ada <atan2sqrt+0xcc>
     aa6:	4502                	lw	a0,0(sp)
     aa8:	85be                	mv	a1,a5
     aaa:	d032                	sw	a2,32(sp)
     aac:	ce1a                	sw	t1,28(sp)
     aae:	cc1e                	sw	t2,24(sp)
     ab0:	e04ff0ef          	jal	ra,b4 <__mulsi3>
     ab4:	c02a                	sw	a0,0(sp)
     ab6:	4512                	lw	a0,4(sp)
     ab8:	85a6                	mv	a1,s1
     aba:	dfaff0ef          	jal	ra,b4 <__mulsi3>
     abe:	4782                	lw	a5,0(sp)
     ac0:	43e2                	lw	t2,24(sp)
     ac2:	5292                	lw	t0,36(sp)
     ac4:	5602                	lw	a2,32(sp)
     ac6:	4372                	lw	t1,28(sp)
     ac8:	953e                	add	a0,a0,a5
     aca:	007406b3          	add	a3,s0,t2
     ace:	40f55793          	srai	a5,a0,0xf
     ad2:	40f2d493          	srai	s1,t0,0xf
     ad6:	0ff6f413          	andi	s0,a3,255
     ada:	0311                	addi	t1,t1,4
     adc:	4751                	li	a4,20
     ade:	0013d393          	srli	t2,t2,0x1
     ae2:	f8e311e3          	bne	t1,a4,a64 <atan2sqrt+0x56>
     ae6:	4732                	lw	a4,12(sp)
     ae8:	c31c                	sw	a5,0(a4)
     aea:	4722                	lw	a4,8(sp)
     aec:	221c                	lbu	a5,0(a2)
     aee:	c709                	beqz	a4,af8 <atan2sqrt+0xea>
     af0:	408006b3          	neg	a3,s0
     af4:	0ff6f413          	andi	s0,a3,255
     af8:	008786b3          	add	a3,a5,s0
     afc:	a214                	sb	a3,0(a2)
     afe:	6145                	addi	sp,sp,48
     b00:	daaff06f          	j	aa <__riscv_restore_0>
     b04:	f8000693          	li	a3,-128
     b08:	40a007b3          	neg	a5,a0
     b0c:	40b004b3          	neg	s1,a1
     b10:	a214                	sb	a3,0(a2)
     b12:	bf01                	j	a22 <atan2sqrt+0x14>

00000b14 <prand8>:
     b14:	d8cff2ef          	jal	t0,a0 <__riscv_save_0>
     b18:	842a                	mv	s0,a0
     b1a:	4108                	lw	a0,0(a0)
     b1c:	015a55b7          	lui	a1,0x15a5
     b20:	e3558593          	addi	a1,a1,-459 # 15a4e35 <_data_lma+0x15a2e49>
     b24:	d90ff0ef          	jal	ra,b4 <__mulsi3>
     b28:	0505                	addi	a0,a0,1
     b2a:	c008                	sw	a0,0(s0)
     b2c:	8135                	srli	a0,a0,0xd
     b2e:	0ff57513          	andi	a0,a0,255
     b32:	d78ff06f          	j	aa <__riscv_restore_0>

00000b36 <timer2_init>:
     b36:	d6aff2ef          	jal	t0,a0 <__riscv_save_0>
     b3a:	1131                	addi	sp,sp,-20
     b3c:	4585                	li	a1,1
     b3e:	4505                	li	a0,1
     b40:	202010ef          	jal	ra,1d42 <RCC_APB1PeriphClockCmd>
     b44:	47dd                	li	a5,23
     b46:	c43e                	sw	a5,8(sp)
     b48:	6789                	lui	a5,0x2
     b4a:	70f78793          	addi	a5,a5,1807 # 270f <_data_lma+0x723>
     b4e:	002c                	addi	a1,sp,8
     b50:	40000537          	lui	a0,0x40000
     b54:	c63e                	sw	a5,12(sp)
     b56:	20a010ef          	jal	ra,1d60 <TIM_TimeBaseInit>
     b5a:	4605                	li	a2,1
     b5c:	4585                	li	a1,1
     b5e:	40000537          	lui	a0,0x40000
     b62:	264010ef          	jal	ra,1dc6 <TIM_ITConfig>
     b66:	12600793          	li	a5,294
     b6a:	807c                	sh	a5,0(sp)
     b6c:	4785                	li	a5,1
     b6e:	815c                	sb	a5,2(sp)
     b70:	850a                	mv	a0,sp
     b72:	4785                	li	a5,1
     b74:	c23e                	sw	a5,4(sp)
     b76:	0ac010ef          	jal	ra,1c22 <NVIC_Init>
     b7a:	4585                	li	a1,1
     b7c:	40000537          	lui	a0,0x40000
     b80:	22e010ef          	jal	ra,1dae <TIM_Cmd>
     b84:	0151                	addi	sp,sp,20
     b86:	d24ff06f          	j	aa <__riscv_restore_0>

00000b8a <i2c_init>:
     b8a:	d16ff2ef          	jal	t0,a0 <__riscv_save_0>
     b8e:	1111                	addi	sp,sp,-28
     b90:	4585                	li	a1,1
     b92:	4545                	li	a0,17
     b94:	190010ef          	jal	ra,1d24 <RCC_APB2PeriphClockCmd>
     b98:	4799                	li	a5,6
     b9a:	807c                	sh	a5,0(sp)
     b9c:	47f1                	li	a5,28
     b9e:	c43e                	sw	a5,8(sp)
     ba0:	858a                	mv	a1,sp
     ba2:	478d                	li	a5,3
     ba4:	40011537          	lui	a0,0x40011
     ba8:	c23e                	sw	a5,4(sp)
     baa:	00011123          	sh	zero,2(sp)
     bae:	585000ef          	jal	ra,1932 <GPIO_Init>
     bb2:	4585                	li	a1,1
     bb4:	00200537          	lui	a0,0x200
     bb8:	18a010ef          	jal	ra,1d42 <RCC_APB1PeriphClockCmd>
     bbc:	000627b7          	lui	a5,0x62
     bc0:	a8078793          	addi	a5,a5,-1408 # 61a80 <_data_lma+0x5fa94>
     bc4:	c63e                	sw	a5,12(sp)
     bc6:	77f1                	lui	a5,0xffffc
     bc8:	c802                	sw	zero,16(sp)
     bca:	17fd                	addi	a5,a5,-1
     bcc:	81fc                	sh	a5,18(sp)
     bce:	040007b7          	lui	a5,0x4000
     bd2:	40005437          	lui	s0,0x40005
     bd6:	07e5                	addi	a5,a5,25
     bd8:	cc02                	sw	zero,24(sp)
     bda:	ca3e                	sw	a5,20(sp)
     bdc:	006c                	addi	a1,sp,12
     bde:	6791                	lui	a5,0x4
     be0:	40040513          	addi	a0,s0,1024 # 40005400 <__global_pointer$+0x20004bb8>
     be4:	84fc                	sh	a5,24(sp)
     be6:	645000ef          	jal	ra,1a2a <I2C_Init>
     bea:	40040513          	addi	a0,s0,1024
     bee:	4585                	li	a1,1
     bf0:	71d000ef          	jal	ra,1b0c <I2C_Cmd>
     bf4:	4585                	li	a1,1
     bf6:	40040513          	addi	a0,s0,1024
     bfa:	75f000ef          	jal	ra,1b58 <I2C_AcknowledgeConfig>
     bfe:	0171                	addi	sp,sp,28
     c00:	caaff06f          	j	aa <__riscv_restore_0>

00000c04 <i2c_ReadOneByte>:
     c04:	c9cff2ef          	jal	t0,a0 <__riscv_save_0>
     c08:	40005437          	lui	s0,0x40005
     c0c:	84aa                	mv	s1,a0
     c0e:	40040793          	addi	a5,s0,1024 # 40005400 <__global_pointer$+0x20004bb8>
     c12:	853e                	mv	a0,a5
     c14:	000205b7          	lui	a1,0x20
     c18:	78f000ef          	jal	ra,1ba6 <I2C_GetFlagStatus>
     c1c:	400057b7          	lui	a5,0x40005
     c20:	40078793          	addi	a5,a5,1024 # 40005400 <__global_pointer$+0x20004bb8>
     c24:	f57d                	bnez	a0,c12 <i2c_ReadOneByte+0xe>
     c26:	40040513          	addi	a0,s0,1024
     c2a:	4585                	li	a1,1
     c2c:	00030437          	lui	s0,0x30
     c30:	6f5000ef          	jal	ra,1b24 <I2C_GenerateSTART>
     c34:	0405                	addi	s0,s0,1
     c36:	400057b7          	lui	a5,0x40005
     c3a:	40078513          	addi	a0,a5,1024 # 40005400 <__global_pointer$+0x20004bb8>
     c3e:	85a2                	mv	a1,s0
     c40:	751000ef          	jal	ra,1b90 <I2C_CheckEvent>
     c44:	400057b7          	lui	a5,0x40005
     c48:	d57d                	beqz	a0,c36 <i2c_ReadOneByte+0x32>
     c4a:	4601                	li	a2,0
     c4c:	03200593          	li	a1,50
     c50:	40078513          	addi	a0,a5,1024 # 40005400 <__global_pointer$+0x20004bb8>
     c54:	00070437          	lui	s0,0x70
     c58:	727000ef          	jal	ra,1b7e <I2C_Send7bitAddress>
     c5c:	08240413          	addi	s0,s0,130 # 70082 <_data_lma+0x6e096>
     c60:	400057b7          	lui	a5,0x40005
     c64:	40078513          	addi	a0,a5,1024 # 40005400 <__global_pointer$+0x20004bb8>
     c68:	85a2                	mv	a1,s0
     c6a:	727000ef          	jal	ra,1b90 <I2C_CheckEvent>
     c6e:	400057b7          	lui	a5,0x40005
     c72:	d57d                	beqz	a0,c60 <i2c_ReadOneByte+0x5c>
     c74:	85a6                	mv	a1,s1
     c76:	40078513          	addi	a0,a5,1024 # 40005400 <__global_pointer$+0x20004bb8>
     c7a:	00070437          	lui	s0,0x70
     c7e:	6f5000ef          	jal	ra,1b72 <I2C_SendData>
     c82:	08440413          	addi	s0,s0,132 # 70084 <_data_lma+0x6e098>
     c86:	400054b7          	lui	s1,0x40005
     c8a:	85a2                	mv	a1,s0
     c8c:	40048513          	addi	a0,s1,1024 # 40005400 <__global_pointer$+0x20004bb8>
     c90:	701000ef          	jal	ra,1b90 <I2C_CheckEvent>
     c94:	d96d                	beqz	a0,c86 <i2c_ReadOneByte+0x82>
     c96:	4585                	li	a1,1
     c98:	40048513          	addi	a0,s1,1024
     c9c:	00030437          	lui	s0,0x30
     ca0:	685000ef          	jal	ra,1b24 <I2C_GenerateSTART>
     ca4:	0405                	addi	s0,s0,1
     ca6:	400054b7          	lui	s1,0x40005
     caa:	85a2                	mv	a1,s0
     cac:	40048513          	addi	a0,s1,1024 # 40005400 <__global_pointer$+0x20004bb8>
     cb0:	6e1000ef          	jal	ra,1b90 <I2C_CheckEvent>
     cb4:	d96d                	beqz	a0,ca6 <i2c_ReadOneByte+0xa2>
     cb6:	4605                	li	a2,1
     cb8:	03200593          	li	a1,50
     cbc:	40048513          	addi	a0,s1,1024
     cc0:	00030437          	lui	s0,0x30
     cc4:	6bb000ef          	jal	ra,1b7e <I2C_Send7bitAddress>
     cc8:	0409                	addi	s0,s0,2
     cca:	40005537          	lui	a0,0x40005
     cce:	85a2                	mv	a1,s0
     cd0:	40050513          	addi	a0,a0,1024 # 40005400 <__global_pointer$+0x20004bb8>
     cd4:	6bd000ef          	jal	ra,1b90 <I2C_CheckEvent>
     cd8:	d96d                	beqz	a0,cca <i2c_ReadOneByte+0xc6>
     cda:	100004b7          	lui	s1,0x10000
     cde:	04048493          	addi	s1,s1,64 # 10000040 <_data_lma+0xfffe054>
     ce2:	40005437          	lui	s0,0x40005
     ce6:	85a6                	mv	a1,s1
     ce8:	40040513          	addi	a0,s0,1024 # 40005400 <__global_pointer$+0x20004bb8>
     cec:	6bb000ef          	jal	ra,1ba6 <I2C_GetFlagStatus>
     cf0:	cd11                	beqz	a0,d0c <i2c_ReadOneByte+0x108>
     cf2:	40040513          	addi	a0,s0,1024
     cf6:	681000ef          	jal	ra,1b76 <I2C_ReceiveData>
     cfa:	84aa                	mv	s1,a0
     cfc:	4585                	li	a1,1
     cfe:	40040513          	addi	a0,s0,1024
     d02:	63d000ef          	jal	ra,1b3e <I2C_GenerateSTOP>
     d06:	8526                	mv	a0,s1
     d08:	ba2ff06f          	j	aa <__riscv_restore_0>
     d0c:	4581                	li	a1,0
     d0e:	40040513          	addi	a0,s0,1024
     d12:	647000ef          	jal	ra,1b58 <I2C_AcknowledgeConfig>
     d16:	b7f1                	j	ce2 <i2c_ReadOneByte+0xde>

00000d18 <i2c_ReadMultipleBytes>:
     d18:	b88ff2ef          	jal	t0,a0 <__riscv_save_0>
     d1c:	1161                	addi	sp,sp,-8
     d1e:	400057b7          	lui	a5,0x40005
     d22:	842a                	mv	s0,a0
     d24:	84ae                	mv	s1,a1
     d26:	c232                	sw	a2,4(sp)
     d28:	c036                	sw	a3,0(sp)
     d2a:	40078713          	addi	a4,a5,1024 # 40005400 <__global_pointer$+0x20004bb8>
     d2e:	853a                	mv	a0,a4
     d30:	000205b7          	lui	a1,0x20
     d34:	673000ef          	jal	ra,1ba6 <I2C_GetFlagStatus>
     d38:	400057b7          	lui	a5,0x40005
     d3c:	40078713          	addi	a4,a5,1024 # 40005400 <__global_pointer$+0x20004bb8>
     d40:	f57d                	bnez	a0,d2e <i2c_ReadMultipleBytes+0x16>
     d42:	4585                	li	a1,1
     d44:	853a                	mv	a0,a4
     d46:	5df000ef          	jal	ra,1b24 <I2C_GenerateSTART>
     d4a:	000307b7          	lui	a5,0x30
     d4e:	0785                	addi	a5,a5,1
     d50:	40005737          	lui	a4,0x40005
     d54:	85be                	mv	a1,a5
     d56:	40070513          	addi	a0,a4,1024 # 40005400 <__global_pointer$+0x20004bb8>
     d5a:	637000ef          	jal	ra,1b90 <I2C_CheckEvent>
     d5e:	000307b7          	lui	a5,0x30
     d62:	40005737          	lui	a4,0x40005
     d66:	0785                	addi	a5,a5,1
     d68:	d565                	beqz	a0,d50 <i2c_ReadMultipleBytes+0x38>
     d6a:	4601                	li	a2,0
     d6c:	85a2                	mv	a1,s0
     d6e:	40070513          	addi	a0,a4,1024 # 40005400 <__global_pointer$+0x20004bb8>
     d72:	60d000ef          	jal	ra,1b7e <I2C_Send7bitAddress>
     d76:	000707b7          	lui	a5,0x70
     d7a:	08278793          	addi	a5,a5,130 # 70082 <_data_lma+0x6e096>
     d7e:	40005737          	lui	a4,0x40005
     d82:	85be                	mv	a1,a5
     d84:	40070513          	addi	a0,a4,1024 # 40005400 <__global_pointer$+0x20004bb8>
     d88:	609000ef          	jal	ra,1b90 <I2C_CheckEvent>
     d8c:	000707b7          	lui	a5,0x70
     d90:	40005737          	lui	a4,0x40005
     d94:	08278793          	addi	a5,a5,130 # 70082 <_data_lma+0x6e096>
     d98:	d17d                	beqz	a0,d7e <i2c_ReadMultipleBytes+0x66>
     d9a:	85a6                	mv	a1,s1
     d9c:	40070513          	addi	a0,a4,1024 # 40005400 <__global_pointer$+0x20004bb8>
     da0:	000704b7          	lui	s1,0x70
     da4:	5cf000ef          	jal	ra,1b72 <I2C_SendData>
     da8:	08448493          	addi	s1,s1,132 # 70084 <_data_lma+0x6e098>
     dac:	400057b7          	lui	a5,0x40005
     db0:	40078513          	addi	a0,a5,1024 # 40005400 <__global_pointer$+0x20004bb8>
     db4:	85a6                	mv	a1,s1
     db6:	5db000ef          	jal	ra,1b90 <I2C_CheckEvent>
     dba:	400057b7          	lui	a5,0x40005
     dbe:	d57d                	beqz	a0,dac <i2c_ReadMultipleBytes+0x94>
     dc0:	4585                	li	a1,1
     dc2:	40078513          	addi	a0,a5,1024 # 40005400 <__global_pointer$+0x20004bb8>
     dc6:	000304b7          	lui	s1,0x30
     dca:	55b000ef          	jal	ra,1b24 <I2C_GenerateSTART>
     dce:	0485                	addi	s1,s1,1
     dd0:	400057b7          	lui	a5,0x40005
     dd4:	40078513          	addi	a0,a5,1024 # 40005400 <__global_pointer$+0x20004bb8>
     dd8:	85a6                	mv	a1,s1
     dda:	5b7000ef          	jal	ra,1b90 <I2C_CheckEvent>
     dde:	400057b7          	lui	a5,0x40005
     de2:	d57d                	beqz	a0,dd0 <i2c_ReadMultipleBytes+0xb8>
     de4:	85a2                	mv	a1,s0
     de6:	4605                	li	a2,1
     de8:	40078513          	addi	a0,a5,1024 # 40005400 <__global_pointer$+0x20004bb8>
     dec:	00030437          	lui	s0,0x30
     df0:	58f000ef          	jal	ra,1b7e <I2C_Send7bitAddress>
     df4:	0409                	addi	s0,s0,2
     df6:	400054b7          	lui	s1,0x40005
     dfa:	85a2                	mv	a1,s0
     dfc:	40048513          	addi	a0,s1,1024 # 40005400 <__global_pointer$+0x20004bb8>
     e00:	591000ef          	jal	ra,1b90 <I2C_CheckEvent>
     e04:	d96d                	beqz	a0,df6 <i2c_ReadMultipleBytes+0xde>
     e06:	40048513          	addi	a0,s1,1024
     e0a:	4585                	li	a1,1
     e0c:	54d000ef          	jal	ra,1b58 <I2C_AcknowledgeConfig>
     e10:	4792                	lw	a5,4(sp)
     e12:	4481                	li	s1,0
     e14:	fff78413          	addi	s0,a5,-1
     e18:	0284dd63          	bge	s1,s0,e52 <i2c_ReadMultipleBytes+0x13a>
     e1c:	100007b7          	lui	a5,0x10000
     e20:	04078793          	addi	a5,a5,64 # 10000040 <_data_lma+0xfffe054>
     e24:	40005737          	lui	a4,0x40005
     e28:	85be                	mv	a1,a5
     e2a:	40070513          	addi	a0,a4,1024 # 40005400 <__global_pointer$+0x20004bb8>
     e2e:	579000ef          	jal	ra,1ba6 <I2C_GetFlagStatus>
     e32:	100007b7          	lui	a5,0x10000
     e36:	40005737          	lui	a4,0x40005
     e3a:	04078793          	addi	a5,a5,64 # 10000040 <_data_lma+0xfffe054>
     e3e:	d17d                	beqz	a0,e24 <i2c_ReadMultipleBytes+0x10c>
     e40:	40070513          	addi	a0,a4,1024 # 40005400 <__global_pointer$+0x20004bb8>
     e44:	533000ef          	jal	ra,1b76 <I2C_ReceiveData>
     e48:	4782                	lw	a5,0(sp)
     e4a:	97a6                	add	a5,a5,s1
     e4c:	a388                	sb	a0,0(a5)
     e4e:	0485                	addi	s1,s1,1
     e50:	b7e1                	j	e18 <i2c_ReadMultipleBytes+0x100>
     e52:	40005537          	lui	a0,0x40005
     e56:	4581                	li	a1,0
     e58:	40050513          	addi	a0,a0,1024 # 40005400 <__global_pointer$+0x20004bb8>
     e5c:	4fd000ef          	jal	ra,1b58 <I2C_AcknowledgeConfig>
     e60:	100007b7          	lui	a5,0x10000
     e64:	04078793          	addi	a5,a5,64 # 10000040 <_data_lma+0xfffe054>
     e68:	400054b7          	lui	s1,0x40005
     e6c:	85be                	mv	a1,a5
     e6e:	40048513          	addi	a0,s1,1024 # 40005400 <__global_pointer$+0x20004bb8>
     e72:	535000ef          	jal	ra,1ba6 <I2C_GetFlagStatus>
     e76:	100007b7          	lui	a5,0x10000
     e7a:	04078793          	addi	a5,a5,64 # 10000040 <_data_lma+0xfffe054>
     e7e:	d56d                	beqz	a0,e68 <i2c_ReadMultipleBytes+0x150>
     e80:	4782                	lw	a5,0(sp)
     e82:	40048513          	addi	a0,s1,1024
     e86:	943e                	add	s0,s0,a5
     e88:	4ef000ef          	jal	ra,1b76 <I2C_ReceiveData>
     e8c:	a008                	sb	a0,0(s0)
     e8e:	4585                	li	a1,1
     e90:	40048513          	addi	a0,s1,1024
     e94:	4ab000ef          	jal	ra,1b3e <I2C_GenerateSTOP>
     e98:	0121                	addi	sp,sp,8
     e9a:	a10ff06f          	j	aa <__riscv_restore_0>

00000e9e <platform_read>:
     e9e:	a02ff2ef          	jal	t0,a0 <__riscv_save_0>
     ea2:	87b6                	mv	a5,a3
     ea4:	03200513          	li	a0,50
     ea8:	86b2                	mv	a3,a2
     eaa:	863e                	mv	a2,a5
     eac:	35b5                	jal	d18 <i2c_ReadMultipleBytes>
     eae:	4501                	li	a0,0
     eb0:	9faff06f          	j	aa <__riscv_restore_0>

00000eb4 <i2c_WriteOneByte>:
     eb4:	9ecff2ef          	jal	t0,a0 <__riscv_save_0>
     eb8:	400057b7          	lui	a5,0x40005
     ebc:	842a                	mv	s0,a0
     ebe:	84ae                	mv	s1,a1
     ec0:	40078713          	addi	a4,a5,1024 # 40005400 <__global_pointer$+0x20004bb8>
     ec4:	853a                	mv	a0,a4
     ec6:	000205b7          	lui	a1,0x20
     eca:	4dd000ef          	jal	ra,1ba6 <I2C_GetFlagStatus>
     ece:	400057b7          	lui	a5,0x40005
     ed2:	40078713          	addi	a4,a5,1024 # 40005400 <__global_pointer$+0x20004bb8>
     ed6:	f57d                	bnez	a0,ec4 <i2c_WriteOneByte+0x10>
     ed8:	4585                	li	a1,1
     eda:	853a                	mv	a0,a4
     edc:	449000ef          	jal	ra,1b24 <I2C_GenerateSTART>
     ee0:	000307b7          	lui	a5,0x30
     ee4:	0785                	addi	a5,a5,1
     ee6:	40005737          	lui	a4,0x40005
     eea:	85be                	mv	a1,a5
     eec:	40070513          	addi	a0,a4,1024 # 40005400 <__global_pointer$+0x20004bb8>
     ef0:	4a1000ef          	jal	ra,1b90 <I2C_CheckEvent>
     ef4:	000307b7          	lui	a5,0x30
     ef8:	40005737          	lui	a4,0x40005
     efc:	0785                	addi	a5,a5,1
     efe:	d565                	beqz	a0,ee6 <i2c_WriteOneByte+0x32>
     f00:	4601                	li	a2,0
     f02:	03200593          	li	a1,50
     f06:	40070513          	addi	a0,a4,1024 # 40005400 <__global_pointer$+0x20004bb8>
     f0a:	475000ef          	jal	ra,1b7e <I2C_Send7bitAddress>
     f0e:	000707b7          	lui	a5,0x70
     f12:	08278793          	addi	a5,a5,130 # 70082 <_data_lma+0x6e096>
     f16:	40005737          	lui	a4,0x40005
     f1a:	85be                	mv	a1,a5
     f1c:	40070513          	addi	a0,a4,1024 # 40005400 <__global_pointer$+0x20004bb8>
     f20:	471000ef          	jal	ra,1b90 <I2C_CheckEvent>
     f24:	000707b7          	lui	a5,0x70
     f28:	40005737          	lui	a4,0x40005
     f2c:	08278793          	addi	a5,a5,130 # 70082 <_data_lma+0x6e096>
     f30:	d17d                	beqz	a0,f16 <i2c_WriteOneByte+0x62>
     f32:	85a2                	mv	a1,s0
     f34:	40070513          	addi	a0,a4,1024 # 40005400 <__global_pointer$+0x20004bb8>
     f38:	43b000ef          	jal	ra,1b72 <I2C_SendData>
     f3c:	000707b7          	lui	a5,0x70
     f40:	08478793          	addi	a5,a5,132 # 70084 <_data_lma+0x6e098>
     f44:	40005437          	lui	s0,0x40005
     f48:	85be                	mv	a1,a5
     f4a:	40040513          	addi	a0,s0,1024 # 40005400 <__global_pointer$+0x20004bb8>
     f4e:	443000ef          	jal	ra,1b90 <I2C_CheckEvent>
     f52:	000707b7          	lui	a5,0x70
     f56:	08478793          	addi	a5,a5,132 # 70084 <_data_lma+0x6e098>
     f5a:	d56d                	beqz	a0,f44 <i2c_WriteOneByte+0x90>
     f5c:	100005b7          	lui	a1,0x10000
     f60:	08058593          	addi	a1,a1,128 # 10000080 <_data_lma+0xfffe094>
     f64:	40040513          	addi	a0,s0,1024
     f68:	43f000ef          	jal	ra,1ba6 <I2C_GetFlagStatus>
     f6c:	c511                	beqz	a0,f78 <i2c_WriteOneByte+0xc4>
     f6e:	85a6                	mv	a1,s1
     f70:	40040513          	addi	a0,s0,1024
     f74:	3ff000ef          	jal	ra,1b72 <I2C_SendData>
     f78:	00070437          	lui	s0,0x70
     f7c:	08440413          	addi	s0,s0,132 # 70084 <_data_lma+0x6e098>
     f80:	400054b7          	lui	s1,0x40005
     f84:	85a2                	mv	a1,s0
     f86:	40048513          	addi	a0,s1,1024 # 40005400 <__global_pointer$+0x20004bb8>
     f8a:	407000ef          	jal	ra,1b90 <I2C_CheckEvent>
     f8e:	d96d                	beqz	a0,f80 <i2c_WriteOneByte+0xcc>
     f90:	4585                	li	a1,1
     f92:	40048513          	addi	a0,s1,1024
     f96:	3a9000ef          	jal	ra,1b3e <I2C_GenerateSTOP>
     f9a:	910ff06f          	j	aa <__riscv_restore_0>

00000f9e <i2c_WriteMultipleBytes>:
     f9e:	902ff2ef          	jal	t0,a0 <__riscv_save_0>
     fa2:	1161                	addi	sp,sp,-8
     fa4:	400057b7          	lui	a5,0x40005
     fa8:	84aa                	mv	s1,a0
     faa:	842e                	mv	s0,a1
     fac:	c032                	sw	a2,0(sp)
     fae:	c236                	sw	a3,4(sp)
     fb0:	40078713          	addi	a4,a5,1024 # 40005400 <__global_pointer$+0x20004bb8>
     fb4:	853a                	mv	a0,a4
     fb6:	000205b7          	lui	a1,0x20
     fba:	3ed000ef          	jal	ra,1ba6 <I2C_GetFlagStatus>
     fbe:	400057b7          	lui	a5,0x40005
     fc2:	40078713          	addi	a4,a5,1024 # 40005400 <__global_pointer$+0x20004bb8>
     fc6:	f57d                	bnez	a0,fb4 <i2c_WriteMultipleBytes+0x16>
     fc8:	4585                	li	a1,1
     fca:	853a                	mv	a0,a4
     fcc:	359000ef          	jal	ra,1b24 <I2C_GenerateSTART>
     fd0:	000307b7          	lui	a5,0x30
     fd4:	0785                	addi	a5,a5,1
     fd6:	40005737          	lui	a4,0x40005
     fda:	85be                	mv	a1,a5
     fdc:	40070513          	addi	a0,a4,1024 # 40005400 <__global_pointer$+0x20004bb8>
     fe0:	3b1000ef          	jal	ra,1b90 <I2C_CheckEvent>
     fe4:	000307b7          	lui	a5,0x30
     fe8:	40005737          	lui	a4,0x40005
     fec:	0785                	addi	a5,a5,1
     fee:	d565                	beqz	a0,fd6 <i2c_WriteMultipleBytes+0x38>
     ff0:	85a6                	mv	a1,s1
     ff2:	4601                	li	a2,0
     ff4:	40070513          	addi	a0,a4,1024 # 40005400 <__global_pointer$+0x20004bb8>
     ff8:	000704b7          	lui	s1,0x70
     ffc:	383000ef          	jal	ra,1b7e <I2C_Send7bitAddress>
    1000:	08248493          	addi	s1,s1,130 # 70082 <_data_lma+0x6e096>
    1004:	400057b7          	lui	a5,0x40005
    1008:	40078513          	addi	a0,a5,1024 # 40005400 <__global_pointer$+0x20004bb8>
    100c:	85a6                	mv	a1,s1
    100e:	383000ef          	jal	ra,1b90 <I2C_CheckEvent>
    1012:	400057b7          	lui	a5,0x40005
    1016:	d57d                	beqz	a0,1004 <i2c_WriteMultipleBytes+0x66>
    1018:	85a2                	mv	a1,s0
    101a:	40078513          	addi	a0,a5,1024 # 40005400 <__global_pointer$+0x20004bb8>
    101e:	00070437          	lui	s0,0x70
    1022:	351000ef          	jal	ra,1b72 <I2C_SendData>
    1026:	08440413          	addi	s0,s0,132 # 70084 <_data_lma+0x6e098>
    102a:	40005537          	lui	a0,0x40005
    102e:	85a2                	mv	a1,s0
    1030:	40050513          	addi	a0,a0,1024 # 40005400 <__global_pointer$+0x20004bb8>
    1034:	35d000ef          	jal	ra,1b90 <I2C_CheckEvent>
    1038:	d96d                	beqz	a0,102a <i2c_WriteMultipleBytes+0x8c>
    103a:	4401                	li	s0,0
    103c:	4782                	lw	a5,0(sp)
    103e:	00f44c63          	blt	s0,a5,1056 <i2c_WriteMultipleBytes+0xb8>
    1042:	40005537          	lui	a0,0x40005
    1046:	4585                	li	a1,1
    1048:	40050513          	addi	a0,a0,1024 # 40005400 <__global_pointer$+0x20004bb8>
    104c:	2f3000ef          	jal	ra,1b3e <I2C_GenerateSTOP>
    1050:	0121                	addi	sp,sp,8
    1052:	858ff06f          	j	aa <__riscv_restore_0>
    1056:	100005b7          	lui	a1,0x10000
    105a:	400054b7          	lui	s1,0x40005
    105e:	08058593          	addi	a1,a1,128 # 10000080 <_data_lma+0xfffe094>
    1062:	40048513          	addi	a0,s1,1024 # 40005400 <__global_pointer$+0x20004bb8>
    1066:	341000ef          	jal	ra,1ba6 <I2C_GetFlagStatus>
    106a:	c901                	beqz	a0,107a <i2c_WriteMultipleBytes+0xdc>
    106c:	4792                	lw	a5,4(sp)
    106e:	40048513          	addi	a0,s1,1024
    1072:	97a2                	add	a5,a5,s0
    1074:	238c                	lbu	a1,0(a5)
    1076:	2fd000ef          	jal	ra,1b72 <I2C_SendData>
    107a:	000704b7          	lui	s1,0x70
    107e:	08448493          	addi	s1,s1,132 # 70084 <_data_lma+0x6e098>
    1082:	40005537          	lui	a0,0x40005
    1086:	85a6                	mv	a1,s1
    1088:	40050513          	addi	a0,a0,1024 # 40005400 <__global_pointer$+0x20004bb8>
    108c:	305000ef          	jal	ra,1b90 <I2C_CheckEvent>
    1090:	d96d                	beqz	a0,1082 <i2c_WriteMultipleBytes+0xe4>
    1092:	0405                	addi	s0,s0,1
    1094:	b765                	j	103c <i2c_WriteMultipleBytes+0x9e>

00001096 <platform_write>:
    1096:	80aff2ef          	jal	t0,a0 <__riscv_save_0>
    109a:	87b6                	mv	a5,a3
    109c:	03200513          	li	a0,50
    10a0:	86b2                	mv	a3,a2
    10a2:	863e                	mv	a2,a5
    10a4:	3ded                	jal	f9e <i2c_WriteMultipleBytes>
    10a6:	4501                	li	a0,0
    10a8:	802ff06f          	j	aa <__riscv_restore_0>

000010ac <iwdg_init>:
    10ac:	ff5fe2ef          	jal	t0,a0 <__riscv_save_0>
    10b0:	400217b7          	lui	a5,0x40021
    10b4:	4705                	li	a4,1
    10b6:	d3d8                	sw	a4,36(a5)
    10b8:	400216b7          	lui	a3,0x40021
    10bc:	52dc                	lw	a5,36(a3)
    10be:	0617f793          	andi	a5,a5,97
    10c2:	fee79de3          	bne	a5,a4,10bc <iwdg_init+0x10>
    10c6:	6515                	lui	a0,0x5
    10c8:	55550513          	addi	a0,a0,1365 # 5555 <_data_lma+0x3569>
    10cc:	30d000ef          	jal	ra,1bd8 <IWDG_WriteAccessCmd>
    10d0:	4509                	li	a0,2
    10d2:	30f000ef          	jal	ra,1be0 <IWDG_SetPrescaler>
    10d6:	6505                	lui	a0,0x1
    10d8:	fa050513          	addi	a0,a0,-96 # fa0 <i2c_WriteMultipleBytes+0x2>
    10dc:	30d000ef          	jal	ra,1be8 <IWDG_SetReload>
    10e0:	311000ef          	jal	ra,1bf0 <IWDG_ReloadCounter>
    10e4:	31b000ef          	jal	ra,1bfe <IWDG_Enable>
    10e8:	309000ef          	jal	ra,1bf0 <IWDG_ReloadCounter>
    10ec:	fbffe06f          	j	aa <__riscv_restore_0>

000010f0 <TIM2_IRQHandler>:
    10f0:	4585                	li	a1,1
    10f2:	40000537          	lui	a0,0x40000
    10f6:	4e3000ef          	jal	ra,1dd8 <TIM_GetITStatus>
    10fa:	4785                	li	a5,1
    10fc:	00f51963          	bne	a0,a5,110e <TIM2_IRQHandler+0x1e>
    1100:	90a1a423          	sw	a0,-1784(gp) # 20000150 <trig10ms>
    1104:	4585                	li	a1,1
    1106:	40000537          	lui	a0,0x40000
    110a:	4e7000ef          	jal	ra,1df0 <TIM_ClearITPendingBit>
    110e:	30200073          	mret

00001112 <EXTI7_0_IRQHandler>:
    1112:	4511                	li	a0,4
    1114:	7f6000ef          	jal	ra,190a <EXTI_GetITStatus>
    1118:	cd01                	beqz	a0,1130 <EXTI7_0_IRQHandler+0x1e>
    111a:	200007b7          	lui	a5,0x20000
    111e:	0087a783          	lw	a5,8(a5) # 20000008 <swcooldown>
    1122:	e781                	bnez	a5,112a <EXTI7_0_IRQHandler+0x18>
    1124:	4705                	li	a4,1
    1126:	90e1a623          	sw	a4,-1780(gp) # 20000154 <trigsw>
    112a:	4511                	li	a0,4
    112c:	7fc000ef          	jal	ra,1928 <EXTI_ClearITPendingBit>
    1130:	30200073          	mret

00001134 <demo>:
    1134:	f6dfe2ef          	jal	t0,a0 <__riscv_save_0>
    1138:	20000437          	lui	s0,0x20000
    113c:	00042703          	lw	a4,0(s0) # 20000000 <_data_vma>
    1140:	6785                	lui	a5,0x1
    1142:	85978793          	addi	a5,a5,-1959 # 859 <hCurtain2_nd+0x2b>
    1146:	00040413          	mv	s0,s0
    114a:	00f71d63          	bne	a4,a5,1164 <demo+0x30>
    114e:	90418513          	addi	a0,gp,-1788 # 2000014c <random_seed>
    1152:	9c3ff0ef          	jal	ra,b14 <prand8>
    1156:	02600593          	li	a1,38
    115a:	fa7fe0ef          	jal	ra,100 <__umodsi3>
    115e:	0ff57513          	andi	a0,a0,255
    1162:	c008                	sw	a0,0(s0)
    1164:	4004                	lw	s1,0(s0)
    1166:	02500793          	li	a5,37
    116a:	2297eb63          	bltu	a5,s1,13a0 <demo+0x26c>
    116e:	6709                	lui	a4,0x2
    1170:	00249793          	slli	a5,s1,0x2
    1174:	ea470713          	addi	a4,a4,-348 # 1ea4 <Delay_Ms+0x3a>
    1178:	97ba                	add	a5,a5,a4
    117a:	439c                	lw	a5,0(a5)
    117c:	8782                	jr	a5
    117e:	4685                	li	a3,1
    1180:	4601                	li	a2,0
    1182:	45b1                	li	a1,12
    1184:	02000513          	li	a0,32
    1188:	e3aff0ef          	jal	ra,7c2 <hCurtain1_nd>
    118c:	4785                	li	a5,1
    118e:	c901                	beqz	a0,119e <demo+0x6a>
    1190:	f1bfe06f          	j	aa <__riscv_restore_0>
    1194:	4579                	li	a0,30
    1196:	95eff0ef          	jal	ra,2f4 <delay_nd>
    119a:	4789                	li	a5,2
    119c:	f975                	bnez	a0,1190 <demo+0x5c>
    119e:	c01c                	sw	a5,0(s0)
    11a0:	bfc5                	j	1190 <demo+0x5c>
    11a2:	4685                	li	a3,1
    11a4:	4631                	li	a2,12
    11a6:	02000593          	li	a1,32
    11aa:	4501                	li	a0,0
    11ac:	e82ff0ef          	jal	ra,82e <hCurtain2_nd>
    11b0:	478d                	li	a5,3
    11b2:	d575                	beqz	a0,119e <demo+0x6a>
    11b4:	bff1                	j	1190 <demo+0x5c>
    11b6:	4579                	li	a0,30
    11b8:	93cff0ef          	jal	ra,2f4 <delay_nd>
    11bc:	4791                	li	a5,4
    11be:	d165                	beqz	a0,119e <demo+0x6a>
    11c0:	bfc1                	j	1190 <demo+0x5c>
    11c2:	4685                	li	a3,1
    11c4:	02000613          	li	a2,32
    11c8:	4581                	li	a1,0
    11ca:	4531                	li	a0,12
    11cc:	ed2ff0ef          	jal	ra,89e <vCurtain1_nd>
    11d0:	4795                	li	a5,5
    11d2:	d571                	beqz	a0,119e <demo+0x6a>
    11d4:	bf75                	j	1190 <demo+0x5c>
    11d6:	4579                	li	a0,30
    11d8:	91cff0ef          	jal	ra,2f4 <delay_nd>
    11dc:	4799                	li	a5,6
    11de:	d161                	beqz	a0,119e <demo+0x6a>
    11e0:	bf45                	j	1190 <demo+0x5c>
    11e2:	4685                	li	a3,1
    11e4:	461d                	li	a2,7
    11e6:	4591                	li	a1,4
    11e8:	02000513          	li	a0,32
    11ec:	f1eff0ef          	jal	ra,90a <vCurtain2_nd>
    11f0:	479d                	li	a5,7
    11f2:	d555                	beqz	a0,119e <demo+0x6a>
    11f4:	bf71                	j	1190 <demo+0x5c>
    11f6:	4579                	li	a0,30
    11f8:	8fcff0ef          	jal	ra,2f4 <delay_nd>
    11fc:	47a1                	li	a5,8
    11fe:	d145                	beqz	a0,119e <demo+0x6a>
    1200:	bf41                	j	1190 <demo+0x5c>
    1202:	842ff0ef          	jal	ra,244 <clear>
    1206:	47a5                	li	a5,9
    1208:	bf59                	j	119e <demo+0x6a>
    120a:	4505                	li	a0,1
    120c:	902ff0ef          	jal	ra,30e <fadeIn_nd>
    1210:	f141                	bnez	a0,1190 <demo+0x5c>
    1212:	0485                	addi	s1,s1,1
    1214:	c004                	sw	s1,0(s0)
    1216:	bfad                	j	1190 <demo+0x5c>
    1218:	4505                	li	a0,1
    121a:	93eff0ef          	jal	ra,358 <fadeOut_nd>
    121e:	bfcd                	j	1210 <demo+0xdc>
    1220:	824ff0ef          	jal	ra,244 <clear>
    1224:	47c9                	li	a5,18
    1226:	bfa5                	j	119e <demo+0x6a>
    1228:	4689                	li	a3,2
    122a:	4601                	li	a2,0
    122c:	04000593          	li	a1,64
    1230:	04000513          	li	a0,64
    1234:	976ff0ef          	jal	ra,3aa <eight_nd>
    1238:	47cd                	li	a5,19
    123a:	d135                	beqz	a0,119e <demo+0x6a>
    123c:	bf91                	j	1190 <demo+0x5c>
    123e:	4689                	li	a3,2
    1240:	4601                	li	a2,0
    1242:	04000593          	li	a1,64
    1246:	4501                	li	a0,0
    1248:	962ff0ef          	jal	ra,3aa <eight_nd>
    124c:	47d1                	li	a5,20
    124e:	d921                	beqz	a0,119e <demo+0x6a>
    1250:	b781                	j	1190 <demo+0x5c>
    1252:	4689                	li	a3,2
    1254:	04000613          	li	a2,64
    1258:	04000593          	li	a1,64
    125c:	4501                	li	a0,0
    125e:	94cff0ef          	jal	ra,3aa <eight_nd>
    1262:	47d5                	li	a5,21
    1264:	dd0d                	beqz	a0,119e <demo+0x6a>
    1266:	b72d                	j	1190 <demo+0x5c>
    1268:	4689                	li	a3,2
    126a:	4601                	li	a2,0
    126c:	02000593          	li	a1,32
    1270:	02000513          	li	a0,32
    1274:	9c8ff0ef          	jal	ra,43c <eight2_nd>
    1278:	47d9                	li	a5,22
    127a:	f20502e3          	beqz	a0,119e <demo+0x6a>
    127e:	bf09                	j	1190 <demo+0x5c>
    1280:	468d                	li	a3,3
    1282:	4601                	li	a2,0
    1284:	02000593          	li	a1,32
    1288:	4501                	li	a0,0
    128a:	9b2ff0ef          	jal	ra,43c <eight2_nd>
    128e:	47dd                	li	a5,23
    1290:	f00507e3          	beqz	a0,119e <demo+0x6a>
    1294:	bdf5                	j	1190 <demo+0x5c>
    1296:	468d                	li	a3,3
    1298:	02000613          	li	a2,32
    129c:	02000593          	li	a1,32
    12a0:	4501                	li	a0,0
    12a2:	99aff0ef          	jal	ra,43c <eight2_nd>
    12a6:	47e1                	li	a5,24
    12a8:	ee050be3          	beqz	a0,119e <demo+0x6a>
    12ac:	b5d5                	j	1190 <demo+0x5c>
    12ae:	4695                	li	a3,5
    12b0:	4621                	li	a2,8
    12b2:	4581                	li	a1,0
    12b4:	02000513          	li	a0,32
    12b8:	9e2ff0ef          	jal	ra,49a <eight3_nd>
    12bc:	47e5                	li	a5,25
    12be:	ee0500e3          	beqz	a0,119e <demo+0x6a>
    12c2:	b5f9                	j	1190 <demo+0x5c>
    12c4:	4695                	li	a3,5
    12c6:	02000613          	li	a2,32
    12ca:	4581                	li	a1,0
    12cc:	4521                	li	a0,8
    12ce:	a96ff0ef          	jal	ra,564 <eight3b_nd>
    12d2:	47e9                	li	a5,26
    12d4:	ec0505e3          	beqz	a0,119e <demo+0x6a>
    12d8:	bd65                	j	1190 <demo+0x5c>
    12da:	f6bfe0ef          	jal	ra,244 <clear>
    12de:	47ed                	li	a5,27
    12e0:	bd7d                	j	119e <demo+0x6a>
    12e2:	4695                	li	a3,5
    12e4:	4601                	li	a2,0
    12e6:	02000593          	li	a1,32
    12ea:	02000513          	li	a0,32
    12ee:	b40ff0ef          	jal	ra,62e <fill1_nd>
    12f2:	47f1                	li	a5,28
    12f4:	ea0505e3          	beqz	a0,119e <demo+0x6a>
    12f8:	bd61                	j	1190 <demo+0x5c>
    12fa:	4695                	li	a3,5
    12fc:	4601                	li	a2,0
    12fe:	02000593          	li	a1,32
    1302:	4501                	li	a0,0
    1304:	baaff0ef          	jal	ra,6ae <fill2_nd>
    1308:	47f5                	li	a5,29
    130a:	e8050ae3          	beqz	a0,119e <demo+0x6a>
    130e:	b549                	j	1190 <demo+0x5c>
    1310:	4695                	li	a3,5
    1312:	02000613          	li	a2,32
    1316:	02000593          	li	a1,32
    131a:	4501                	li	a0,0
    131c:	b12ff0ef          	jal	ra,62e <fill1_nd>
    1320:	47f9                	li	a5,30
    1322:	e6050ee3          	beqz	a0,119e <demo+0x6a>
    1326:	b5ad                	j	1190 <demo+0x5c>
    1328:	4695                	li	a3,5
    132a:	4601                	li	a2,0
    132c:	02000593          	li	a1,32
    1330:	02000513          	li	a0,32
    1334:	b7aff0ef          	jal	ra,6ae <fill2_nd>
    1338:	47fd                	li	a5,31
    133a:	e60502e3          	beqz	a0,119e <demo+0x6a>
    133e:	bd89                	j	1190 <demo+0x5c>
    1340:	4505                	li	a0,1
    1342:	e38ff0ef          	jal	ra,97a <rainbow_nd>
    1346:	b5e9                	j	1210 <demo+0xdc>
    1348:	47a9                	li	a5,10
    134a:	4719                	li	a4,6
    134c:	46a9                	li	a3,10
    134e:	02000613          	li	a2,32
    1352:	02000593          	li	a1,32
    1356:	02000513          	li	a0,32
    135a:	bdaff0ef          	jal	ra,734 <theaterChase2_nd>
    135e:	02400793          	li	a5,36
    1362:	e2050ee3          	beqz	a0,119e <demo+0x6a>
    1366:	b52d                	j	1190 <demo+0x5c>
    1368:	47d1                	li	a5,20
    136a:	4711                	li	a4,4
    136c:	4695                	li	a3,5
    136e:	4605                	li	a2,1
    1370:	4589                	li	a1,2
    1372:	02000513          	li	a0,32
    1376:	bbeff0ef          	jal	ra,734 <theaterChase2_nd>
    137a:	02500793          	li	a5,37
    137e:	e20500e3          	beqz	a0,119e <demo+0x6a>
    1382:	b539                	j	1190 <demo+0x5c>
    1384:	47d1                	li	a5,20
    1386:	470d                	li	a4,3
    1388:	4695                	li	a3,5
    138a:	02000613          	li	a2,32
    138e:	458d                	li	a1,3
    1390:	4509                	li	a0,2
    1392:	ba2ff0ef          	jal	ra,734 <theaterChase2_nd>
    1396:	de051de3          	bnez	a0,1190 <demo+0x5c>
    139a:	02600793          	li	a5,38
    139e:	b501                	j	119e <demo+0x6a>
    13a0:	00042023          	sw	zero,0(s0)
    13a4:	b3f5                	j	1190 <demo+0x5c>

000013a6 <gravity>:
    13a6:	cfbfe2ef          	jal	t0,a0 <__riscv_save_0>
    13aa:	1131                	addi	sp,sp,-20
    13ac:	47b1                	li	a5,12
    13ae:	02900513          	li	a0,41
    13b2:	87dc                	sb	a5,15(sp)
    13b4:	c802                	sw	zero,16(sp)
    13b6:	84fff0ef          	jal	ra,c04 <i2c_ReadOneByte>
    13ba:	c42a                	sw	a0,8(sp)
    13bc:	02800513          	li	a0,40
    13c0:	845ff0ef          	jal	ra,c04 <i2c_ReadOneByte>
    13c4:	c22a                	sw	a0,4(sp)
    13c6:	02b00513          	li	a0,43
    13ca:	83bff0ef          	jal	ra,c04 <i2c_ReadOneByte>
    13ce:	842a                	mv	s0,a0
    13d0:	02a00513          	li	a0,42
    13d4:	831ff0ef          	jal	ra,c04 <i2c_ReadOneByte>
    13d8:	c02a                	sw	a0,0(sp)
    13da:	02d00513          	li	a0,45
    13de:	827ff0ef          	jal	ra,c04 <i2c_ReadOneByte>
    13e2:	84aa                	mv	s1,a0
    13e4:	02c00513          	li	a0,44
    13e8:	81dff0ef          	jal	ra,c04 <i2c_ReadOneByte>
    13ec:	04a2                	slli	s1,s1,0x8
    13ee:	94aa                	add	s1,s1,a0
    13f0:	04c2                	slli	s1,s1,0x10
    13f2:	76f1                	lui	a3,0xffffc
    13f4:	84c1                	srai	s1,s1,0x10
    13f6:	56868693          	addi	a3,a3,1384 # ffffc568 <__global_pointer$+0xdfffbd20>
    13fa:	4602                	lw	a2,0(sp)
    13fc:	4712                	lw	a4,4(sp)
    13fe:	47a2                	lw	a5,8(sp)
    1400:	00d4d763          	bge	s1,a3,140e <gravity+0x68>
    1404:	e41fe0ef          	jal	ra,244 <clear>
    1408:	0151                	addi	sp,sp,20
    140a:	ca1fe06f          	j	aa <__riscv_restore_0>
    140e:	00841593          	slli	a1,s0,0x8
    1412:	00879513          	slli	a0,a5,0x8
    1416:	95b2                	add	a1,a1,a2
    1418:	953a                	add	a0,a0,a4
    141a:	05c2                	slli	a1,a1,0x10
    141c:	85c1                	srai	a1,a1,0x10
    141e:	0542                	slli	a0,a0,0x10
    1420:	0814                	addi	a3,sp,16
    1422:	00f10613          	addi	a2,sp,15
    1426:	40b005b3          	neg	a1,a1
    142a:	8541                	srai	a0,a0,0x10
    142c:	de2ff0ef          	jal	ra,a0e <atan2sqrt>
    1430:	4742                	lw	a4,16(sp)
    1432:	6785                	lui	a5,0x1
    1434:	38778793          	addi	a5,a5,903 # 1387 <demo+0x253>
    1438:	fce7f6e3          	bgeu	a5,a4,1404 <gravity+0x5e>
    143c:	8784                	lbu	s1,15(sp)
    143e:	08e00713          	li	a4,142
    1442:	fc848793          	addi	a5,s1,-56
    1446:	0ff7f793          	andi	a5,a5,255
    144a:	faf76de3          	bltu	a4,a5,1404 <gravity+0x5e>
    144e:	0034d713          	srli	a4,s1,0x3
    1452:	0711                	addi	a4,a4,4
    1454:	c03a                	sw	a4,0(sp)
    1456:	deffe0ef          	jal	ra,244 <clear>
    145a:	4702                	lw	a4,0(sp)
    145c:	889d                	andi	s1,s1,7
    145e:	20000437          	lui	s0,0x20000
    1462:	00171793          	slli	a5,a4,0x1
    1466:	46a1                	li	a3,8
    1468:	04840613          	addi	a2,s0,72 # 20000048 <_edata>
    146c:	97ba                	add	a5,a5,a4
    146e:	8e85                	sub	a3,a3,s1
    1470:	97b2                	add	a5,a5,a2
    1472:	00170593          	addi	a1,a4,1
    1476:	0ff6f693          	andi	a3,a3,255
    147a:	00078023          	sb	zero,0(a5)
    147e:	b394                	sb	a3,1(a5)
    1480:	a3b4                	sb	a3,2(a5)
    1482:	00159793          	slli	a5,a1,0x1
    1486:	97ae                	add	a5,a5,a1
    1488:	97b2                	add	a5,a5,a2
    148a:	03c00513          	li	a0,60
    148e:	00078023          	sb	zero,0(a5)
    1492:	b384                	sb	s1,1(a5)
    1494:	a3a4                	sb	s1,2(a5)
    1496:	8d19                	sub	a0,a0,a4
    1498:	45f9                	li	a1,30
    149a:	c236                	sw	a3,4(sp)
    149c:	c89fe0ef          	jal	ra,124 <__modsi3>
    14a0:	02750513          	addi	a0,a0,39 # 40000027 <__global_pointer$+0x1ffff7df>
    14a4:	03b00793          	li	a5,59
    14a8:	04840413          	addi	s0,s0,72
    14ac:	4702                	lw	a4,0(sp)
    14ae:	00a7cb63          	blt	a5,a0,14c4 <gravity+0x11e>
    14b2:	4692                	lw	a3,4(sp)
    14b4:	00151793          	slli	a5,a0,0x1
    14b8:	953e                	add	a0,a0,a5
    14ba:	9522                	add	a0,a0,s0
    14bc:	00050023          	sb	zero,0(a0)
    14c0:	b114                	sb	a3,1(a0)
    14c2:	a134                	sb	a3,2(a0)
    14c4:	03b00793          	li	a5,59
    14c8:	40e78533          	sub	a0,a5,a4
    14cc:	45f9                	li	a1,30
    14ce:	c57fe0ef          	jal	ra,124 <__modsi3>
    14d2:	02750513          	addi	a0,a0,39
    14d6:	03b00793          	li	a5,59
    14da:	f2a7c7e3          	blt	a5,a0,1408 <gravity+0x62>
    14de:	00151793          	slli	a5,a0,0x1
    14e2:	953e                	add	a0,a0,a5
    14e4:	9522                	add	a0,a0,s0
    14e6:	00050023          	sb	zero,0(a0)
    14ea:	b104                	sb	s1,1(a0)
    14ec:	a124                	sb	s1,2(a0)
    14ee:	bf29                	j	1408 <gravity+0x62>

000014f0 <glitter>:
    14f0:	bb1fe2ef          	jal	t0,a0 <__riscv_save_0>
    14f4:	d51fe0ef          	jal	ra,244 <clear>
    14f8:	90418513          	addi	a0,gp,-1788 # 2000014c <random_seed>
    14fc:	e18ff0ef          	jal	ra,b14 <prand8>
    1500:	0e600793          	li	a5,230
    1504:	02a7f963          	bgeu	a5,a0,1536 <glitter+0x46>
    1508:	90418513          	addi	a0,gp,-1788 # 2000014c <random_seed>
    150c:	e08ff0ef          	jal	ra,b14 <prand8>
    1510:	03c00593          	li	a1,60
    1514:	bedfe0ef          	jal	ra,100 <__umodsi3>
    1518:	0ff57513          	andi	a0,a0,255
    151c:	00151793          	slli	a5,a0,0x1
    1520:	97aa                	add	a5,a5,a0
    1522:	20000537          	lui	a0,0x20000
    1526:	04850513          	addi	a0,a0,72 # 20000048 <_edata>
    152a:	953e                	add	a0,a0,a5
    152c:	47b9                	li	a5,14
    152e:	a11c                	sb	a5,0(a0)
    1530:	b11c                	sb	a5,1(a0)
    1532:	47c1                	li	a5,16
    1534:	a13c                	sb	a5,2(a0)
    1536:	b75fe06f          	j	aa <__riscv_restore_0>

0000153a <main>:
    153a:	b67fe2ef          	jal	t0,a0 <__riscv_save_0>
    153e:	fd810113          	addi	sp,sp,-40
    1542:	24a5                	jal	17aa <SystemCoreClockUpdate>
    1544:	0b9000ef          	jal	ra,1dfc <Delay_Init>
    1548:	c07fe0ef          	jal	ra,14e <GPIO_INITZ>
    154c:	4515                	li	a0,5
    154e:	11d000ef          	jal	ra,1e6a <Delay_Ms>
    1552:	d13fe0ef          	jal	ra,264 <LED_OFF>
    1556:	ceffe0ef          	jal	ra,244 <clear>
    155a:	400217b7          	lui	a5,0x40021
    155e:	53dc                	lw	a5,36(a5)
    1560:	20000437          	lui	s0,0x20000
    1564:	00279713          	slli	a4,a5,0x2
    1568:	02075863          	bgez	a4,1598 <main+0x5e>
    156c:	04840793          	addi	a5,s0,72 # 20000048 <_edata>
    1570:	4751                	li	a4,20
    1572:	affa                	sh	a4,30(a5)
    1574:	06e79c23          	sh	a4,120(a5) # 40021078 <__global_pointer$+0x20020830>
    1578:	04840513          	addi	a0,s0,72
    157c:	02078023          	sb	zero,32(a5)
    1580:	06078d23          	sb	zero,122(a5)
    1584:	c9ffe0ef          	jal	ra,222 <SHOWTIME>
    1588:	1f400513          	li	a0,500
    158c:	0df000ef          	jal	ra,1e6a <Delay_Ms>
    1590:	cd5fe0ef          	jal	ra,264 <LED_OFF>
    1594:	cb1fe0ef          	jal	ra,244 <clear>
    1598:	04840513          	addi	a0,s0,72
    159c:	c87fe0ef          	jal	ra,222 <SHOWTIME>
    15a0:	b0dff0ef          	jal	ra,10ac <iwdg_init>
    15a4:	4505                	li	a0,1
    15a6:	2d9d                	jal	1c1c <NVIC_PriorityGroupConfig>
    15a8:	4585                	li	a1,1
    15aa:	4511                	li	a0,4
    15ac:	c602                	sw	zero,12(sp)
    15ae:	c802                	sw	zero,16(sp)
    15b0:	ca02                	sw	zero,20(sp)
    15b2:	772000ef          	jal	ra,1d24 <RCC_APB2PeriphClockCmd>
    15b6:	4791                	li	a5,4
    15b8:	867c                	sh	a5,12(sp)
    15ba:	40011537          	lui	a0,0x40011
    15be:	04800793          	li	a5,72
    15c2:	ca3e                	sw	a5,20(sp)
    15c4:	006c                	addi	a1,sp,12
    15c6:	4789                	li	a5,2
    15c8:	80050513          	addi	a0,a0,-2048 # 40010800 <__global_pointer$+0x2000ffb8>
    15cc:	c83e                	sw	a5,16(sp)
    15ce:	2695                	jal	1932 <GPIO_Init>
    15d0:	4589                	li	a1,2
    15d2:	4501                	li	a0,0
    15d4:	2915                	jal	1a08 <GPIO_EXTILineConfig>
    15d6:	4791                	li	a5,4
    15d8:	cc3e                	sw	a5,24(sp)
    15da:	47b1                	li	a5,12
    15dc:	0828                	addi	a0,sp,24
    15de:	d03e                	sw	a5,32(sp)
    15e0:	4785                	li	a5,1
    15e2:	d23e                	sw	a5,36(sp)
    15e4:	ce02                	sw	zero,28(sp)
    15e6:	2c6d                	jal	18a0 <EXTI_Init>
    15e8:	e000e7b7          	lui	a5,0xe000e
    15ec:	00100737          	lui	a4,0x100
    15f0:	10e7a023          	sw	a4,256(a5) # e000e100 <__global_pointer$+0xc000d8b8>
    15f4:	d42ff0ef          	jal	ra,b36 <timer2_init>
    15f8:	d92ff0ef          	jal	ra,b8a <i2c_init>
    15fc:	04400593          	li	a1,68
    1600:	02100513          	li	a0,33
    1604:	8b1ff0ef          	jal	ra,eb4 <i2c_WriteOneByte>
    1608:	4529                	li	a0,10
    160a:	061000ef          	jal	ra,1e6a <Delay_Ms>
    160e:	08400593          	li	a1,132
    1612:	02100513          	li	a0,33
    1616:	89fff0ef          	jal	ra,eb4 <i2c_WriteOneByte>
    161a:	4505                	li	a0,1
    161c:	04f000ef          	jal	ra,1e6a <Delay_Ms>
    1620:	02000593          	li	a1,32
    1624:	02000513          	li	a0,32
    1628:	88dff0ef          	jal	ra,eb4 <i2c_WriteOneByte>
    162c:	4505                	li	a0,1
    162e:	03d000ef          	jal	ra,1e6a <Delay_Ms>
    1632:	868a                	mv	a3,sp
    1634:	4619                	li	a2,6
    1636:	02600593          	li	a1,38
    163a:	03200513          	li	a0,50
    163e:	edaff0ef          	jal	ra,d18 <i2c_ReadMultipleBytes>
    1642:	40005737          	lui	a4,0x40005
    1646:	8f418793          	addi	a5,gp,-1804 # 2000013c <lis12_ctx>
    164a:	40070713          	addi	a4,a4,1024 # 40005400 <__global_pointer$+0x20004bb8>
    164e:	c7d8                	sw	a4,12(a5)
    1650:	00001737          	lui	a4,0x1
    1654:	09670713          	addi	a4,a4,150 # 1096 <platform_write>
    1658:	c398                	sw	a4,0(a5)
    165a:	00001737          	lui	a4,0x1
    165e:	e9e70713          	addi	a4,a4,-354 # e9e <platform_read>
    1662:	02800513          	li	a0,40
    1666:	c3d8                	sw	a4,4(a5)
    1668:	d9cff0ef          	jal	ra,c04 <i2c_ReadOneByte>
    166c:	90a1a223          	sw	a0,-1788(gp) # 2000014c <random_seed>
    1670:	90c18793          	addi	a5,gp,-1780 # 20000154 <trigsw>
    1674:	4394                	lw	a3,0(a5)
    1676:	4705                	li	a4,1
    1678:	02e69563          	bne	a3,a4,16a2 <main+0x168>
    167c:	200004b7          	lui	s1,0x20000
    1680:	00448493          	addi	s1,s1,4 # 20000004 <s_state>
    1684:	4088                	lw	a0,0(s1)
    1686:	20000737          	lui	a4,0x20000
    168a:	46a9                	li	a3,10
    168c:	00d72423          	sw	a3,8(a4) # 20000008 <swcooldown>
    1690:	458d                	li	a1,3
    1692:	0505                	addi	a0,a0,1
    1694:	a6dfe0ef          	jal	ra,100 <__umodsi3>
    1698:	90c18793          	addi	a5,gp,-1780 # 20000154 <trigsw>
    169c:	c088                	sw	a0,0(s1)
    169e:	0007a023          	sw	zero,0(a5)
    16a2:	90818793          	addi	a5,gp,-1784 # 20000150 <trig10ms>
    16a6:	4398                	lw	a4,0(a5)
    16a8:	4785                	li	a5,1
    16aa:	90818493          	addi	s1,gp,-1784 # 20000150 <trig10ms>
    16ae:	04f71a63          	bne	a4,a5,1702 <main+0x1c8>
    16b2:	200007b7          	lui	a5,0x20000
    16b6:	00878793          	addi	a5,a5,8 # 20000008 <swcooldown>
    16ba:	4398                	lw	a4,0(a5)
    16bc:	00e05563          	blez	a4,16c6 <main+0x18c>
    16c0:	4398                	lw	a4,0(a5)
    16c2:	177d                	addi	a4,a4,-1
    16c4:	c398                	sw	a4,0(a5)
    16c6:	200007b7          	lui	a5,0x20000
    16ca:	0047a783          	lw	a5,4(a5) # 20000004 <s_state>
    16ce:	4705                	li	a4,1
    16d0:	04e78463          	beq	a5,a4,1718 <main+0x1de>
    16d4:	c781                	beqz	a5,16dc <main+0x1a2>
    16d6:	4709                	li	a4,2
    16d8:	04e78363          	beq	a5,a4,171e <main+0x1e4>
    16dc:	3d11                	jal	14f0 <glitter>
    16de:	e000e7b7          	lui	a5,0xe000e
    16e2:	00100737          	lui	a4,0x100
    16e6:	18e7a023          	sw	a4,384(a5) # e000e180 <__global_pointer$+0xc000d938>
    16ea:	04840513          	addi	a0,s0,72
    16ee:	b35fe0ef          	jal	ra,222 <SHOWTIME>
    16f2:	e000e7b7          	lui	a5,0xe000e
    16f6:	00100737          	lui	a4,0x100
    16fa:	10e7a023          	sw	a4,256(a5) # e000e100 <__global_pointer$+0xc000d8b8>
    16fe:	0004a023          	sw	zero,0(s1)
    1702:	21fd                	jal	1bf0 <IWDG_ReloadCounter>
    1704:	e000f737          	lui	a4,0xe000f
    1708:	d1072783          	lw	a5,-752(a4) # e000ed10 <__global_pointer$+0xc000e4c8>
    170c:	9bdd                	andi	a5,a5,-9
    170e:	d0f72823          	sw	a5,-752(a4)
    1712:	10500073          	wfi
    1716:	bfa9                	j	1670 <main+0x136>
    1718:	a1dff0ef          	jal	ra,1134 <demo>
    171c:	b7c9                	j	16de <main+0x1a4>
    171e:	3161                	jal	13a6 <gravity>
    1720:	bf7d                	j	16de <main+0x1a4>

00001722 <SystemInit>:
    1722:	97ffe2ef          	jal	t0,a0 <__riscv_save_0>
    1726:	40021437          	lui	s0,0x40021
    172a:	401c                	lw	a5,0(s0)
    172c:	fcff0737          	lui	a4,0xfcff0
    1730:	4541                	li	a0,16
    1732:	0017e793          	ori	a5,a5,1
    1736:	c01c                	sw	a5,0(s0)
    1738:	405c                	lw	a5,4(s0)
    173a:	8ff9                	and	a5,a5,a4
    173c:	c05c                	sw	a5,4(s0)
    173e:	401c                	lw	a5,0(s0)
    1740:	fef70737          	lui	a4,0xfef70
    1744:	177d                	addi	a4,a4,-1
    1746:	8ff9                	and	a5,a5,a4
    1748:	c01c                	sw	a5,0(s0)
    174a:	401c                	lw	a5,0(s0)
    174c:	fffc0737          	lui	a4,0xfffc0
    1750:	177d                	addi	a4,a4,-1
    1752:	8ff9                	and	a5,a5,a4
    1754:	c01c                	sw	a5,0(s0)
    1756:	405c                	lw	a5,4(s0)
    1758:	7741                	lui	a4,0xffff0
    175a:	177d                	addi	a4,a4,-1
    175c:	8ff9                	and	a5,a5,a4
    175e:	c05c                	sw	a5,4(s0)
    1760:	009f07b7          	lui	a5,0x9f0
    1764:	c41c                	sw	a5,8(s0)
    1766:	2b01                	jal	1c76 <RCC_AdjustHSICalibrationValue>
    1768:	4c1c                	lw	a5,24(s0)
    176a:	0207e793          	ori	a5,a5,32
    176e:	cc1c                	sw	a5,24(s0)
    1770:	400117b7          	lui	a5,0x40011
    1774:	4007a703          	lw	a4,1024(a5) # 40011400 <__global_pointer$+0x20010bb8>
    1778:	40078693          	addi	a3,a5,1024
    177c:	f0f77713          	andi	a4,a4,-241
    1780:	40e7a023          	sw	a4,1024(a5)
    1784:	4007a703          	lw	a4,1024(a5)
    1788:	08076713          	ori	a4,a4,128
    178c:	40e7a023          	sw	a4,1024(a5)
    1790:	4789                	li	a5,2
    1792:	ca9c                	sw	a5,16(a3)
    1794:	400227b7          	lui	a5,0x40022
    1798:	4398                	lw	a4,0(a5)
    179a:	9b71                	andi	a4,a4,-4
    179c:	c398                	sw	a4,0(a5)
    179e:	4398                	lw	a4,0(a5)
    17a0:	c398                	sw	a4,0(a5)
    17a2:	405c                	lw	a5,4(s0)
    17a4:	c05c                	sw	a5,4(s0)
    17a6:	905fe06f          	j	aa <__riscv_restore_0>

000017aa <SystemCoreClockUpdate>:
    17aa:	8f7fe2ef          	jal	t0,a0 <__riscv_save_0>
    17ae:	40021737          	lui	a4,0x40021
    17b2:	435c                	lw	a5,4(a4)
    17b4:	20000437          	lui	s0,0x20000
    17b8:	4691                	li	a3,4
    17ba:	8bb1                	andi	a5,a5,12
    17bc:	01c40413          	addi	s0,s0,28 # 2000001c <SystemCoreClock>
    17c0:	00d78563          	beq	a5,a3,17ca <SystemCoreClockUpdate+0x20>
    17c4:	46a1                	li	a3,8
    17c6:	04d78263          	beq	a5,a3,180a <SystemCoreClockUpdate+0x60>
    17ca:	016e37b7          	lui	a5,0x16e3
    17ce:	60078793          	addi	a5,a5,1536 # 16e3600 <_data_lma+0x16e1614>
    17d2:	c01c                	sw	a5,0(s0)
    17d4:	400216b7          	lui	a3,0x40021
    17d8:	42dc                	lw	a5,4(a3)
    17da:	4008                	lw	a0,0(s0)
    17dc:	8391                	srli	a5,a5,0x4
    17de:	00f7f713          	andi	a4,a5,15
    17e2:	200007b7          	lui	a5,0x20000
    17e6:	00c78793          	addi	a5,a5,12 # 2000000c <AHBPrescTable>
    17ea:	97ba                	add	a5,a5,a4
    17ec:	238c                	lbu	a1,0(a5)
    17ee:	42dc                	lw	a5,4(a3)
    17f0:	0ff5f593          	andi	a1,a1,255
    17f4:	0807f793          	andi	a5,a5,128
    17f8:	00b55733          	srl	a4,a0,a1
    17fc:	e781                	bnez	a5,1804 <SystemCoreClockUpdate+0x5a>
    17fe:	8d7fe0ef          	jal	ra,d4 <__udivsi3>
    1802:	872a                	mv	a4,a0
    1804:	c018                	sw	a4,0(s0)
    1806:	8a5fe06f          	j	aa <__riscv_restore_0>
    180a:	435c                	lw	a5,4(a4)
    180c:	02dc77b7          	lui	a5,0x2dc7
    1810:	c0078793          	addi	a5,a5,-1024 # 2dc6c00 <_data_lma+0x2dc4c14>
    1814:	bf7d                	j	17d2 <SystemCoreClockUpdate+0x28>

00001816 <ADC1_IRQHandler>:
    1816:	a001                	j	1816 <ADC1_IRQHandler>

00001818 <handle_reset>:
    1818:	1ffff197          	auipc	gp,0x1ffff
    181c:	03018193          	addi	gp,gp,48 # 20000848 <__global_pointer$>
    1820:	fb818113          	addi	sp,gp,-72 # 20000800 <_eusrstack>
    1824:	00000517          	auipc	a0,0x0
    1828:	7c850513          	addi	a0,a0,1992 # 1fec <_data_lma>
    182c:	1fffe597          	auipc	a1,0x1fffe
    1830:	7d458593          	addi	a1,a1,2004 # 20000000 <_data_vma>
    1834:	1ffff617          	auipc	a2,0x1ffff
    1838:	81460613          	addi	a2,a2,-2028 # 20000048 <_edata>
    183c:	00c5fa63          	bgeu	a1,a2,1850 <handle_reset+0x38>
    1840:	00052283          	lw	t0,0(a0)
    1844:	0055a023          	sw	t0,0(a1)
    1848:	0511                	addi	a0,a0,4
    184a:	0591                	addi	a1,a1,4
    184c:	fec5eae3          	bltu	a1,a2,1840 <handle_reset+0x28>
    1850:	1fffe517          	auipc	a0,0x1fffe
    1854:	7f850513          	addi	a0,a0,2040 # 20000048 <_edata>
    1858:	91818593          	addi	a1,gp,-1768 # 20000160 <_ebss>
    185c:	00b57763          	bgeu	a0,a1,186a <handle_reset+0x52>
    1860:	00052023          	sw	zero,0(a0)
    1864:	0511                	addi	a0,a0,4
    1866:	feb56de3          	bltu	a0,a1,1860 <handle_reset+0x48>
    186a:	000022b7          	lui	t0,0x2
    186e:	88028293          	addi	t0,t0,-1920 # 1880 <handle_reset+0x68>
    1872:	30029073          	csrw	mstatus,t0
    1876:	428d                	li	t0,3
    1878:	80429073          	csrw	0x804,t0
    187c:	ffffe297          	auipc	t0,0xffffe
    1880:	78428293          	addi	t0,t0,1924 # 0 <_sinit>
    1884:	0032e293          	ori	t0,t0,3
    1888:	30529073          	csrw	mtvec,t0
    188c:	e97ff0ef          	jal	ra,1722 <SystemInit>
    1890:	00000297          	auipc	t0,0x0
    1894:	caa28293          	addi	t0,t0,-854 # 153a <main>
    1898:	34129073          	csrw	mepc,t0
    189c:	30200073          	mret

000018a0 <EXTI_Init>:
    18a0:	4158                	lw	a4,4(a0)
    18a2:	00052303          	lw	t1,0(a0)
    18a6:	454c                	lw	a1,12(a0)
    18a8:	40010637          	lui	a2,0x40010
    18ac:	40060793          	addi	a5,a2,1024 # 40010400 <__global_pointer$+0x2000fbb8>
    18b0:	973e                	add	a4,a4,a5
    18b2:	fff34693          	not	a3,t1
    18b6:	c5b1                	beqz	a1,1902 <EXTI_Init+0x62>
    18b8:	40062583          	lw	a1,1024(a2)
    18bc:	8df5                	and	a1,a1,a3
    18be:	40b62023          	sw	a1,1024(a2)
    18c2:	43d0                	lw	a2,4(a5)
    18c4:	8ef1                	and	a3,a3,a2
    18c6:	c3d4                	sw	a3,4(a5)
    18c8:	4314                	lw	a3,0(a4)
    18ca:	0066e6b3          	or	a3,a3,t1
    18ce:	c314                	sw	a3,0(a4)
    18d0:	4118                	lw	a4,0(a0)
    18d2:	4790                	lw	a2,8(a5)
    18d4:	fff74693          	not	a3,a4
    18d8:	8e75                	and	a2,a2,a3
    18da:	c790                	sw	a2,8(a5)
    18dc:	47d0                	lw	a2,12(a5)
    18de:	8ef1                	and	a3,a3,a2
    18e0:	c7d4                	sw	a3,12(a5)
    18e2:	4514                	lw	a3,8(a0)
    18e4:	4641                	li	a2,16
    18e6:	00c69963          	bne	a3,a2,18f8 <EXTI_Init+0x58>
    18ea:	4794                	lw	a3,8(a5)
    18ec:	8ed9                	or	a3,a3,a4
    18ee:	c794                	sw	a3,8(a5)
    18f0:	47d4                	lw	a3,12(a5)
    18f2:	8f55                	or	a4,a4,a3
    18f4:	c7d8                	sw	a4,12(a5)
    18f6:	8082                	ret
    18f8:	97b6                	add	a5,a5,a3
    18fa:	4394                	lw	a3,0(a5)
    18fc:	8f55                	or	a4,a4,a3
    18fe:	c398                	sw	a4,0(a5)
    1900:	8082                	ret
    1902:	431c                	lw	a5,0(a4)
    1904:	8ff5                	and	a5,a5,a3
    1906:	c31c                	sw	a5,0(a4)
    1908:	8082                	ret

0000190a <EXTI_GetITStatus>:
    190a:	400107b7          	lui	a5,0x40010
    190e:	40078713          	addi	a4,a5,1024 # 40010400 <__global_pointer$+0x2000fbb8>
    1912:	4007a783          	lw	a5,1024(a5)
    1916:	4b58                	lw	a4,20(a4)
    1918:	8f69                	and	a4,a4,a0
    191a:	c709                	beqz	a4,1924 <EXTI_GetITStatus+0x1a>
    191c:	8d7d                	and	a0,a0,a5
    191e:	00a03533          	snez	a0,a0
    1922:	8082                	ret
    1924:	4501                	li	a0,0
    1926:	8082                	ret

00001928 <EXTI_ClearITPendingBit>:
    1928:	400107b7          	lui	a5,0x40010
    192c:	40a7aa23          	sw	a0,1044(a5) # 40010414 <__global_pointer$+0x2000fbcc>
    1930:	8082                	ret

00001932 <GPIO_Init>:
    1932:	459c                	lw	a5,8(a1)
    1934:	1161                	addi	sp,sp,-8
    1936:	c222                	sw	s0,4(sp)
    1938:	c026                	sw	s1,0(sp)
    193a:	0107f713          	andi	a4,a5,16
    193e:	00f7f313          	andi	t1,a5,15
    1942:	c701                	beqz	a4,194a <GPIO_Init+0x18>
    1944:	41d8                	lw	a4,4(a1)
    1946:	00e36333          	or	t1,t1,a4
    194a:	2192                	lhu	a2,0(a1)
    194c:	0ff67713          	andi	a4,a2,255
    1950:	c729                	beqz	a4,199a <GPIO_Init+0x68>
    1952:	00052383          	lw	t2,0(a0)
    1956:	4701                	li	a4,0
    1958:	02800413          	li	s0,40
    195c:	04800493          	li	s1,72
    1960:	4685                	li	a3,1
    1962:	00e695b3          	sll	a1,a3,a4
    1966:	00b676b3          	and	a3,a2,a1
    196a:	02d59263          	bne	a1,a3,198e <GPIO_Init+0x5c>
    196e:	00271293          	slli	t0,a4,0x2
    1972:	46bd                	li	a3,15
    1974:	005696b3          	sll	a3,a3,t0
    1978:	fff6c693          	not	a3,a3
    197c:	0076f3b3          	and	t2,a3,t2
    1980:	005312b3          	sll	t0,t1,t0
    1984:	0072e3b3          	or	t2,t0,t2
    1988:	06879763          	bne	a5,s0,19f6 <GPIO_Init+0xc4>
    198c:	c94c                	sw	a1,20(a0)
    198e:	0705                	addi	a4,a4,1
    1990:	46a1                	li	a3,8
    1992:	fcd717e3          	bne	a4,a3,1960 <GPIO_Init+0x2e>
    1996:	00752023          	sw	t2,0(a0)
    199a:	0ff00713          	li	a4,255
    199e:	04c77863          	bgeu	a4,a2,19ee <GPIO_Init+0xbc>
    19a2:	00452383          	lw	t2,4(a0)
    19a6:	46a1                	li	a3,8
    19a8:	02800413          	li	s0,40
    19ac:	04800493          	li	s1,72
    19b0:	4705                	li	a4,1
    19b2:	00d712b3          	sll	t0,a4,a3
    19b6:	00567733          	and	a4,a2,t0
    19ba:	02e29463          	bne	t0,a4,19e2 <GPIO_Init+0xb0>
    19be:	00269713          	slli	a4,a3,0x2
    19c2:	1701                	addi	a4,a4,-32
    19c4:	45bd                	li	a1,15
    19c6:	00e595b3          	sll	a1,a1,a4
    19ca:	fff5c593          	not	a1,a1
    19ce:	0075f3b3          	and	t2,a1,t2
    19d2:	00e31733          	sll	a4,t1,a4
    19d6:	007763b3          	or	t2,a4,t2
    19da:	02879263          	bne	a5,s0,19fe <GPIO_Init+0xcc>
    19de:	00552a23          	sw	t0,20(a0)
    19e2:	0685                	addi	a3,a3,1
    19e4:	4741                	li	a4,16
    19e6:	fce695e3          	bne	a3,a4,19b0 <GPIO_Init+0x7e>
    19ea:	00752223          	sw	t2,4(a0)
    19ee:	4412                	lw	s0,4(sp)
    19f0:	4482                	lw	s1,0(sp)
    19f2:	0121                	addi	sp,sp,8
    19f4:	8082                	ret
    19f6:	f8979ce3          	bne	a5,s1,198e <GPIO_Init+0x5c>
    19fa:	c90c                	sw	a1,16(a0)
    19fc:	bf49                	j	198e <GPIO_Init+0x5c>
    19fe:	fe9792e3          	bne	a5,s1,19e2 <GPIO_Init+0xb0>
    1a02:	00552823          	sw	t0,16(a0)
    1a06:	bff1                	j	19e2 <GPIO_Init+0xb0>

00001a08 <GPIO_EXTILineConfig>:
    1a08:	40010737          	lui	a4,0x40010
    1a0c:	4714                	lw	a3,8(a4)
    1a0e:	0586                	slli	a1,a1,0x1
    1a10:	478d                	li	a5,3
    1a12:	00b797b3          	sll	a5,a5,a1
    1a16:	fff7c793          	not	a5,a5
    1a1a:	8ff5                	and	a5,a5,a3
    1a1c:	c71c                	sw	a5,8(a4)
    1a1e:	471c                	lw	a5,8(a4)
    1a20:	00b515b3          	sll	a1,a0,a1
    1a24:	8ddd                	or	a1,a1,a5
    1a26:	c70c                	sw	a1,8(a4)
    1a28:	8082                	ret

00001a2a <I2C_Init>:
    1a2a:	e76fe2ef          	jal	t0,a0 <__riscv_save_0>
    1a2e:	1111                	addi	sp,sp,-28
    1a30:	2146                	lhu	s1,4(a0)
    1a32:	842a                	mv	s0,a0
    1a34:	0028                	addi	a0,sp,8
    1a36:	c02e                	sw	a1,0(sp)
    1a38:	2c81                	jal	1c88 <RCC_GetClocksFreq>
    1a3a:	46c2                	lw	a3,16(sp)
    1a3c:	04c2                	slli	s1,s1,0x10
    1a3e:	80c1                	srli	s1,s1,0x10
    1a40:	fc04f493          	andi	s1,s1,-64
    1a44:	000f45b7          	lui	a1,0xf4
    1a48:	24058593          	addi	a1,a1,576 # f4240 <_data_lma+0xf2254>
    1a4c:	8536                	mv	a0,a3
    1a4e:	04c2                	slli	s1,s1,0x10
    1a50:	c236                	sw	a3,4(sp)
    1a52:	80c1                	srli	s1,s1,0x10
    1a54:	e80fe0ef          	jal	ra,d4 <__udivsi3>
    1a58:	8d45                	or	a0,a0,s1
    1a5a:	0542                	slli	a0,a0,0x10
    1a5c:	8141                	srli	a0,a0,0x10
    1a5e:	a04a                	sh	a0,4(s0)
    1a60:	201e                	lhu	a5,0(s0)
    1a62:	4692                	lw	a3,4(sp)
    1a64:	07c2                	slli	a5,a5,0x10
    1a66:	83c1                	srli	a5,a5,0x10
    1a68:	9bf9                	andi	a5,a5,-2
    1a6a:	07c2                	slli	a5,a5,0x10
    1a6c:	83c1                	srli	a5,a5,0x10
    1a6e:	a01e                	sh	a5,0(s0)
    1a70:	4782                	lw	a5,0(sp)
    1a72:	4390                	lw	a2,0(a5)
    1a74:	67e1                	lui	a5,0x18
    1a76:	6a078793          	addi	a5,a5,1696 # 186a0 <_data_lma+0x166b4>
    1a7a:	00161593          	slli	a1,a2,0x1
    1a7e:	04c7e663          	bltu	a5,a2,1aca <I2C_Init+0xa0>
    1a82:	8536                	mv	a0,a3
    1a84:	e50fe0ef          	jal	ra,d4 <__udivsi3>
    1a88:	87aa                	mv	a5,a0
    1a8a:	0542                	slli	a0,a0,0x10
    1a8c:	8141                	srli	a0,a0,0x10
    1a8e:	4691                	li	a3,4
    1a90:	00d57363          	bgeu	a0,a3,1a96 <I2C_Init+0x6c>
    1a94:	4791                	li	a5,4
    1a96:	01079513          	slli	a0,a5,0x10
    1a9a:	8141                	srli	a0,a0,0x10
    1a9c:	ac4a                	sh	a0,28(s0)
    1a9e:	201e                	lhu	a5,0(s0)
    1aa0:	4702                	lw	a4,0(sp)
    1aa2:	0017e793          	ori	a5,a5,1
    1aa6:	a01e                	sh	a5,0(s0)
    1aa8:	201e                	lhu	a5,0(s0)
    1aaa:	2356                	lhu	a3,4(a4)
    1aac:	2732                	lhu	a2,10(a4)
    1aae:	07c2                	slli	a5,a5,0x10
    1ab0:	83c1                	srli	a5,a5,0x10
    1ab2:	8ed1                	or	a3,a3,a2
    1ab4:	bf57f793          	andi	a5,a5,-1035
    1ab8:	8fd5                	or	a5,a5,a3
    1aba:	a01e                	sh	a5,0(s0)
    1abc:	2716                	lhu	a3,8(a4)
    1abe:	275e                	lhu	a5,12(a4)
    1ac0:	8fd5                	or	a5,a5,a3
    1ac2:	a41e                	sh	a5,8(s0)
    1ac4:	0171                	addi	sp,sp,28
    1ac6:	de4fe06f          	j	aa <__riscv_restore_0>
    1aca:	4782                	lw	a5,0(sp)
    1acc:	23ea                	lhu	a0,6(a5)
    1ace:	67b1                	lui	a5,0xc
    1ad0:	17fd                	addi	a5,a5,-1
    1ad2:	02f51063          	bne	a0,a5,1af2 <I2C_Init+0xc8>
    1ad6:	95b2                	add	a1,a1,a2
    1ad8:	8536                	mv	a0,a3
    1ada:	dfafe0ef          	jal	ra,d4 <__udivsi3>
    1ade:	0542                	slli	a0,a0,0x10
    1ae0:	8141                	srli	a0,a0,0x10
    1ae2:	01451793          	slli	a5,a0,0x14
    1ae6:	e399                	bnez	a5,1aec <I2C_Init+0xc2>
    1ae8:	00156513          	ori	a0,a0,1
    1aec:	67a1                	lui	a5,0x8
    1aee:	8d5d                	or	a0,a0,a5
    1af0:	b775                	j	1a9c <I2C_Init+0x72>
    1af2:	00c587b3          	add	a5,a1,a2
    1af6:	078e                	slli	a5,a5,0x3
    1af8:	00c785b3          	add	a1,a5,a2
    1afc:	8536                	mv	a0,a3
    1afe:	dd6fe0ef          	jal	ra,d4 <__udivsi3>
    1b02:	0542                	slli	a0,a0,0x10
    1b04:	8141                	srli	a0,a0,0x10
    1b06:	6791                	lui	a5,0x4
    1b08:	8d5d                	or	a0,a0,a5
    1b0a:	bfe1                	j	1ae2 <I2C_Init+0xb8>

00001b0c <I2C_Cmd>:
    1b0c:	211e                	lhu	a5,0(a0)
    1b0e:	c589                	beqz	a1,1b18 <I2C_Cmd+0xc>
    1b10:	0017e793          	ori	a5,a5,1
    1b14:	a11e                	sh	a5,0(a0)
    1b16:	8082                	ret
    1b18:	07c2                	slli	a5,a5,0x10
    1b1a:	83c1                	srli	a5,a5,0x10
    1b1c:	9bf9                	andi	a5,a5,-2
    1b1e:	07c2                	slli	a5,a5,0x10
    1b20:	83c1                	srli	a5,a5,0x10
    1b22:	bfcd                	j	1b14 <I2C_Cmd+0x8>

00001b24 <I2C_GenerateSTART>:
    1b24:	211e                	lhu	a5,0(a0)
    1b26:	c589                	beqz	a1,1b30 <I2C_GenerateSTART+0xc>
    1b28:	1007e793          	ori	a5,a5,256
    1b2c:	a11e                	sh	a5,0(a0)
    1b2e:	8082                	ret
    1b30:	07c2                	slli	a5,a5,0x10
    1b32:	83c1                	srli	a5,a5,0x10
    1b34:	eff7f793          	andi	a5,a5,-257
    1b38:	07c2                	slli	a5,a5,0x10
    1b3a:	83c1                	srli	a5,a5,0x10
    1b3c:	bfc5                	j	1b2c <I2C_GenerateSTART+0x8>

00001b3e <I2C_GenerateSTOP>:
    1b3e:	211e                	lhu	a5,0(a0)
    1b40:	c589                	beqz	a1,1b4a <I2C_GenerateSTOP+0xc>
    1b42:	2007e793          	ori	a5,a5,512
    1b46:	a11e                	sh	a5,0(a0)
    1b48:	8082                	ret
    1b4a:	07c2                	slli	a5,a5,0x10
    1b4c:	83c1                	srli	a5,a5,0x10
    1b4e:	dff7f793          	andi	a5,a5,-513
    1b52:	07c2                	slli	a5,a5,0x10
    1b54:	83c1                	srli	a5,a5,0x10
    1b56:	bfc5                	j	1b46 <I2C_GenerateSTOP+0x8>

00001b58 <I2C_AcknowledgeConfig>:
    1b58:	211e                	lhu	a5,0(a0)
    1b5a:	c589                	beqz	a1,1b64 <I2C_AcknowledgeConfig+0xc>
    1b5c:	4007e793          	ori	a5,a5,1024
    1b60:	a11e                	sh	a5,0(a0)
    1b62:	8082                	ret
    1b64:	07c2                	slli	a5,a5,0x10
    1b66:	83c1                	srli	a5,a5,0x10
    1b68:	bff7f793          	andi	a5,a5,-1025
    1b6c:	07c2                	slli	a5,a5,0x10
    1b6e:	83c1                	srli	a5,a5,0x10
    1b70:	bfc5                	j	1b60 <I2C_AcknowledgeConfig+0x8>

00001b72 <I2C_SendData>:
    1b72:	a90e                	sh	a1,16(a0)
    1b74:	8082                	ret

00001b76 <I2C_ReceiveData>:
    1b76:	290a                	lhu	a0,16(a0)
    1b78:	0ff57513          	andi	a0,a0,255
    1b7c:	8082                	ret

00001b7e <I2C_Send7bitAddress>:
    1b7e:	0fe5f793          	andi	a5,a1,254
    1b82:	c219                	beqz	a2,1b88 <I2C_Send7bitAddress+0xa>
    1b84:	0015e793          	ori	a5,a1,1
    1b88:	07c2                	slli	a5,a5,0x10
    1b8a:	83c1                	srli	a5,a5,0x10
    1b8c:	a91e                	sh	a5,16(a0)
    1b8e:	8082                	ret

00001b90 <I2C_CheckEvent>:
    1b90:	295e                	lhu	a5,20(a0)
    1b92:	2d0a                	lhu	a0,24(a0)
    1b94:	0542                	slli	a0,a0,0x10
    1b96:	8d5d                	or	a0,a0,a5
    1b98:	8d6d                	and	a0,a0,a1
    1b9a:	0522                	slli	a0,a0,0x8
    1b9c:	8121                	srli	a0,a0,0x8
    1b9e:	8d0d                	sub	a0,a0,a1
    1ba0:	00153513          	seqz	a0,a0
    1ba4:	8082                	ret

00001ba6 <I2C_GetFlagStatus>:
    1ba6:	1161                	addi	sp,sp,-8
    1ba8:	c002                	sw	zero,0(sp)
    1baa:	c202                	sw	zero,4(sp)
    1bac:	01c5d793          	srli	a5,a1,0x1c
    1bb0:	c22a                	sw	a0,4(sp)
    1bb2:	c03e                	sw	a5,0(sp)
    1bb4:	4782                	lw	a5,0(sp)
    1bb6:	05a2                	slli	a1,a1,0x8
    1bb8:	81a1                	srli	a1,a1,0x8
    1bba:	cb99                	beqz	a5,1bd0 <I2C_GetFlagStatus+0x2a>
    1bbc:	4792                	lw	a5,4(sp)
    1bbe:	07d1                	addi	a5,a5,20
    1bc0:	c23e                	sw	a5,4(sp)
    1bc2:	4792                	lw	a5,4(sp)
    1bc4:	4388                	lw	a0,0(a5)
    1bc6:	0121                	addi	sp,sp,8
    1bc8:	8d6d                	and	a0,a0,a1
    1bca:	00a03533          	snez	a0,a0
    1bce:	8082                	ret
    1bd0:	4792                	lw	a5,4(sp)
    1bd2:	81c1                	srli	a1,a1,0x10
    1bd4:	07e1                	addi	a5,a5,24
    1bd6:	b7ed                	j	1bc0 <I2C_GetFlagStatus+0x1a>

00001bd8 <IWDG_WriteAccessCmd>:
    1bd8:	400037b7          	lui	a5,0x40003
    1bdc:	c388                	sw	a0,0(a5)
    1bde:	8082                	ret

00001be0 <IWDG_SetPrescaler>:
    1be0:	400037b7          	lui	a5,0x40003
    1be4:	c3c8                	sw	a0,4(a5)
    1be6:	8082                	ret

00001be8 <IWDG_SetReload>:
    1be8:	400037b7          	lui	a5,0x40003
    1bec:	c788                	sw	a0,8(a5)
    1bee:	8082                	ret

00001bf0 <IWDG_ReloadCounter>:
    1bf0:	67ad                	lui	a5,0xb
    1bf2:	40003737          	lui	a4,0x40003
    1bf6:	aaa78793          	addi	a5,a5,-1366 # aaaa <_data_lma+0x8abe>
    1bfa:	c31c                	sw	a5,0(a4)
    1bfc:	8082                	ret

00001bfe <IWDG_Enable>:
    1bfe:	67b5                	lui	a5,0xd
    1c00:	40003737          	lui	a4,0x40003
    1c04:	ccc78793          	addi	a5,a5,-820 # cccc <_data_lma+0xace0>
    1c08:	c31c                	sw	a5,0(a4)
    1c0a:	400216b7          	lui	a3,0x40021
    1c0e:	4705                	li	a4,1
    1c10:	52dc                	lw	a5,36(a3)
    1c12:	0617f793          	andi	a5,a5,97
    1c16:	fee79de3          	bne	a5,a4,1c10 <IWDG_Enable+0x12>
    1c1a:	8082                	ret

00001c1c <NVIC_PriorityGroupConfig>:
    1c1c:	90a1a823          	sw	a0,-1776(gp) # 20000158 <NVIC_Priority_Group>
    1c20:	8082                	ret

00001c22 <NVIC_Init>:
    1c22:	9101a683          	lw	a3,-1776(gp) # 20000158 <NVIC_Priority_Group>
    1c26:	4785                	li	a5,1
    1c28:	2118                	lbu	a4,0(a0)
    1c2a:	02f69063          	bne	a3,a5,1c4a <NVIC_Init+0x28>
    1c2e:	311c                	lbu	a5,1(a0)
    1c30:	02d79c63          	bne	a5,a3,1c68 <NVIC_Init+0x46>
    1c34:	213c                	lbu	a5,2(a0)
    1c36:	079a                	slli	a5,a5,0x6
    1c38:	f807e793          	ori	a5,a5,-128
    1c3c:	e000e6b7          	lui	a3,0xe000e
    1c40:	0ff7f793          	andi	a5,a5,255
    1c44:	96ba                	add	a3,a3,a4
    1c46:	40f68023          	sb	a5,1024(a3) # e000e400 <__global_pointer$+0xc000dbb8>
    1c4a:	4685                	li	a3,1
    1c4c:	00575793          	srli	a5,a4,0x5
    1c50:	00e69733          	sll	a4,a3,a4
    1c54:	4154                	lw	a3,4(a0)
    1c56:	ce89                	beqz	a3,1c70 <NVIC_Init+0x4e>
    1c58:	04078793          	addi	a5,a5,64
    1c5c:	078a                	slli	a5,a5,0x2
    1c5e:	e000e6b7          	lui	a3,0xe000e
    1c62:	97b6                	add	a5,a5,a3
    1c64:	c398                	sw	a4,0(a5)
    1c66:	8082                	ret
    1c68:	f3ed                	bnez	a5,1c4a <NVIC_Init+0x28>
    1c6a:	213c                	lbu	a5,2(a0)
    1c6c:	079a                	slli	a5,a5,0x6
    1c6e:	b7f9                	j	1c3c <NVIC_Init+0x1a>
    1c70:	06078793          	addi	a5,a5,96
    1c74:	b7e5                	j	1c5c <NVIC_Init+0x3a>

00001c76 <RCC_AdjustHSICalibrationValue>:
    1c76:	40021737          	lui	a4,0x40021
    1c7a:	431c                	lw	a5,0(a4)
    1c7c:	050e                	slli	a0,a0,0x3
    1c7e:	f077f793          	andi	a5,a5,-249
    1c82:	8d5d                	or	a0,a0,a5
    1c84:	c308                	sw	a0,0(a4)
    1c86:	8082                	ret

00001c88 <RCC_GetClocksFreq>:
    1c88:	c18fe2ef          	jal	t0,a0 <__riscv_save_0>
    1c8c:	40021737          	lui	a4,0x40021
    1c90:	435c                	lw	a5,4(a4)
    1c92:	4691                	li	a3,4
    1c94:	842a                	mv	s0,a0
    1c96:	8bb1                	andi	a5,a5,12
    1c98:	00d78563          	beq	a5,a3,1ca2 <RCC_GetClocksFreq+0x1a>
    1c9c:	46a1                	li	a3,8
    1c9e:	06d78d63          	beq	a5,a3,1d18 <RCC_GetClocksFreq+0x90>
    1ca2:	016e37b7          	lui	a5,0x16e3
    1ca6:	60078793          	addi	a5,a5,1536 # 16e3600 <_data_lma+0x16e1614>
    1caa:	c01c                	sw	a5,0(s0)
    1cac:	400216b7          	lui	a3,0x40021
    1cb0:	42dc                	lw	a5,4(a3)
    1cb2:	8391                	srli	a5,a5,0x4
    1cb4:	00f7f713          	andi	a4,a5,15
    1cb8:	200007b7          	lui	a5,0x20000
    1cbc:	03478793          	addi	a5,a5,52 # 20000034 <APBAHBPrescTable>
    1cc0:	97ba                	add	a5,a5,a4
    1cc2:	238c                	lbu	a1,0(a5)
    1cc4:	42dc                	lw	a5,4(a3)
    1cc6:	4018                	lw	a4,0(s0)
    1cc8:	0ff5f593          	andi	a1,a1,255
    1ccc:	0807f793          	andi	a5,a5,128
    1cd0:	00b75533          	srl	a0,a4,a1
    1cd4:	e781                	bnez	a5,1cdc <RCC_GetClocksFreq+0x54>
    1cd6:	853a                	mv	a0,a4
    1cd8:	bfcfe0ef          	jal	ra,d4 <__udivsi3>
    1cdc:	c048                	sw	a0,4(s0)
    1cde:	c408                	sw	a0,8(s0)
    1ce0:	c448                	sw	a0,12(s0)
    1ce2:	400217b7          	lui	a5,0x40021
    1ce6:	43dc                	lw	a5,4(a5)
    1ce8:	83ad                	srli	a5,a5,0xb
    1cea:	8bfd                	andi	a5,a5,31
    1cec:	0037d713          	srli	a4,a5,0x3
    1cf0:	078a                	slli	a5,a5,0x2
    1cf2:	8bf1                	andi	a5,a5,28
    1cf4:	8fd9                	or	a5,a5,a4
    1cf6:	0137f693          	andi	a3,a5,19
    1cfa:	470d                	li	a4,3
    1cfc:	00d77363          	bgeu	a4,a3,1d02 <RCC_GetClocksFreq+0x7a>
    1d00:	17d1                	addi	a5,a5,-12
    1d02:	20000737          	lui	a4,0x20000
    1d06:	02070713          	addi	a4,a4,32 # 20000020 <ADCPrescTable>
    1d0a:	97ba                	add	a5,a5,a4
    1d0c:	238c                	lbu	a1,0(a5)
    1d0e:	bc6fe0ef          	jal	ra,d4 <__udivsi3>
    1d12:	c808                	sw	a0,16(s0)
    1d14:	b96fe06f          	j	aa <__riscv_restore_0>
    1d18:	435c                	lw	a5,4(a4)
    1d1a:	02dc77b7          	lui	a5,0x2dc7
    1d1e:	c0078793          	addi	a5,a5,-1024 # 2dc6c00 <_data_lma+0x2dc4c14>
    1d22:	b761                	j	1caa <RCC_GetClocksFreq+0x22>

00001d24 <RCC_APB2PeriphClockCmd>:
    1d24:	c599                	beqz	a1,1d32 <RCC_APB2PeriphClockCmd+0xe>
    1d26:	40021737          	lui	a4,0x40021
    1d2a:	4f1c                	lw	a5,24(a4)
    1d2c:	8d5d                	or	a0,a0,a5
    1d2e:	cf08                	sw	a0,24(a4)
    1d30:	8082                	ret
    1d32:	400217b7          	lui	a5,0x40021
    1d36:	4f98                	lw	a4,24(a5)
    1d38:	fff54513          	not	a0,a0
    1d3c:	8d79                	and	a0,a0,a4
    1d3e:	cf88                	sw	a0,24(a5)
    1d40:	8082                	ret

00001d42 <RCC_APB1PeriphClockCmd>:
    1d42:	c599                	beqz	a1,1d50 <RCC_APB1PeriphClockCmd+0xe>
    1d44:	40021737          	lui	a4,0x40021
    1d48:	4f5c                	lw	a5,28(a4)
    1d4a:	8d5d                	or	a0,a0,a5
    1d4c:	cf48                	sw	a0,28(a4)
    1d4e:	8082                	ret
    1d50:	400217b7          	lui	a5,0x40021
    1d54:	4fd8                	lw	a4,28(a5)
    1d56:	fff54513          	not	a0,a0
    1d5a:	8d79                	and	a0,a0,a4
    1d5c:	cfc8                	sw	a0,28(a5)
    1d5e:	8082                	ret

00001d60 <TIM_TimeBaseInit>:
    1d60:	211e                	lhu	a5,0(a0)
    1d62:	40013737          	lui	a4,0x40013
    1d66:	c0070713          	addi	a4,a4,-1024 # 40012c00 <__global_pointer$+0x200123b8>
    1d6a:	07c2                	slli	a5,a5,0x10
    1d6c:	83c1                	srli	a5,a5,0x10
    1d6e:	00e50663          	beq	a0,a4,1d7a <TIM_TimeBaseInit+0x1a>
    1d72:	40000737          	lui	a4,0x40000
    1d76:	00e51663          	bne	a0,a4,1d82 <TIM_TimeBaseInit+0x22>
    1d7a:	21ba                	lhu	a4,2(a1)
    1d7c:	f8f7f793          	andi	a5,a5,-113
    1d80:	8fd9                	or	a5,a5,a4
    1d82:	21fa                	lhu	a4,6(a1)
    1d84:	cff7f793          	andi	a5,a5,-769
    1d88:	07c2                	slli	a5,a5,0x10
    1d8a:	83c1                	srli	a5,a5,0x10
    1d8c:	8fd9                	or	a5,a5,a4
    1d8e:	a11e                	sh	a5,0(a0)
    1d90:	21de                	lhu	a5,4(a1)
    1d92:	b55e                	sh	a5,44(a0)
    1d94:	219e                	lhu	a5,0(a1)
    1d96:	b51e                	sh	a5,40(a0)
    1d98:	400137b7          	lui	a5,0x40013
    1d9c:	c0078793          	addi	a5,a5,-1024 # 40012c00 <__global_pointer$+0x200123b8>
    1da0:	00f51463          	bne	a0,a5,1da8 <TIM_TimeBaseInit+0x48>
    1da4:	259c                	lbu	a5,8(a1)
    1da6:	b91e                	sh	a5,48(a0)
    1da8:	4785                	li	a5,1
    1daa:	a95e                	sh	a5,20(a0)
    1dac:	8082                	ret

00001dae <TIM_Cmd>:
    1dae:	211e                	lhu	a5,0(a0)
    1db0:	c589                	beqz	a1,1dba <TIM_Cmd+0xc>
    1db2:	0017e793          	ori	a5,a5,1
    1db6:	a11e                	sh	a5,0(a0)
    1db8:	8082                	ret
    1dba:	07c2                	slli	a5,a5,0x10
    1dbc:	83c1                	srli	a5,a5,0x10
    1dbe:	9bf9                	andi	a5,a5,-2
    1dc0:	07c2                	slli	a5,a5,0x10
    1dc2:	83c1                	srli	a5,a5,0x10
    1dc4:	bfcd                	j	1db6 <TIM_Cmd+0x8>

00001dc6 <TIM_ITConfig>:
    1dc6:	255e                	lhu	a5,12(a0)
    1dc8:	c601                	beqz	a2,1dd0 <TIM_ITConfig+0xa>
    1dca:	8ddd                	or	a1,a1,a5
    1dcc:	a54e                	sh	a1,12(a0)
    1dce:	8082                	ret
    1dd0:	fff5c593          	not	a1,a1
    1dd4:	8dfd                	and	a1,a1,a5
    1dd6:	bfdd                	j	1dcc <TIM_ITConfig+0x6>

00001dd8 <TIM_GetITStatus>:
    1dd8:	291e                	lhu	a5,16(a0)
    1dda:	254a                	lhu	a0,12(a0)
    1ddc:	8fed                	and	a5,a5,a1
    1dde:	0542                	slli	a0,a0,0x10
    1de0:	8141                	srli	a0,a0,0x10
    1de2:	c789                	beqz	a5,1dec <TIM_GetITStatus+0x14>
    1de4:	8d6d                	and	a0,a0,a1
    1de6:	00a03533          	snez	a0,a0
    1dea:	8082                	ret
    1dec:	4501                	li	a0,0
    1dee:	8082                	ret

00001df0 <TIM_ClearITPendingBit>:
    1df0:	fff5c593          	not	a1,a1
    1df4:	05c2                	slli	a1,a1,0x10
    1df6:	81c1                	srli	a1,a1,0x10
    1df8:	a90e                	sh	a1,16(a0)
    1dfa:	8082                	ret

00001dfc <Delay_Init>:
    1dfc:	aa4fe2ef          	jal	t0,a0 <__riscv_save_0>
    1e00:	200007b7          	lui	a5,0x20000
    1e04:	01c7a503          	lw	a0,28(a5) # 2000001c <SystemCoreClock>
    1e08:	007a15b7          	lui	a1,0x7a1
    1e0c:	20058593          	addi	a1,a1,512 # 7a1200 <_data_lma+0x79f214>
    1e10:	ac4fe0ef          	jal	ra,d4 <__udivsi3>
    1e14:	0ff57513          	andi	a0,a0,255
    1e18:	90a18b23          	sb	a0,-1770(gp) # 2000015e <p_us>
    1e1c:	00551793          	slli	a5,a0,0x5
    1e20:	8f89                	sub	a5,a5,a0
    1e22:	078a                	slli	a5,a5,0x2
    1e24:	953e                	add	a0,a0,a5
    1e26:	050e                	slli	a0,a0,0x3
    1e28:	90a19a23          	sh	a0,-1772(gp) # 2000015c <p_ms>
    1e2c:	a7efe06f          	j	aa <__riscv_restore_0>

00001e30 <Delay_Us>:
    1e30:	a70fe2ef          	jal	t0,a0 <__riscv_save_0>
    1e34:	e000f437          	lui	s0,0xe000f
    1e38:	405c                	lw	a5,4(s0)
    1e3a:	85aa                	mv	a1,a0
    1e3c:	9bf9                	andi	a5,a5,-2
    1e3e:	c05c                	sw	a5,4(s0)
    1e40:	9161c503          	lbu	a0,-1770(gp) # 2000015e <p_us>
    1e44:	a70fe0ef          	jal	ra,b4 <__mulsi3>
    1e48:	c808                	sw	a0,16(s0)
    1e4a:	00042423          	sw	zero,8(s0) # e000f008 <__global_pointer$+0xc000e7c0>
    1e4e:	401c                	lw	a5,0(s0)
    1e50:	0017e793          	ori	a5,a5,1
    1e54:	c01c                	sw	a5,0(s0)
    1e56:	e000f7b7          	lui	a5,0xe000f
    1e5a:	43d8                	lw	a4,4(a5)
    1e5c:	8b05                	andi	a4,a4,1
    1e5e:	df75                	beqz	a4,1e5a <Delay_Us+0x2a>
    1e60:	4398                	lw	a4,0(a5)
    1e62:	9b79                	andi	a4,a4,-2
    1e64:	c398                	sw	a4,0(a5)
    1e66:	a44fe06f          	j	aa <__riscv_restore_0>

00001e6a <Delay_Ms>:
    1e6a:	a36fe2ef          	jal	t0,a0 <__riscv_save_0>
    1e6e:	e000f437          	lui	s0,0xe000f
    1e72:	405c                	lw	a5,4(s0)
    1e74:	85aa                	mv	a1,a0
    1e76:	9bf9                	andi	a5,a5,-2
    1e78:	c05c                	sw	a5,4(s0)
    1e7a:	9141d503          	lhu	a0,-1772(gp) # 2000015c <p_ms>
    1e7e:	a36fe0ef          	jal	ra,b4 <__mulsi3>
    1e82:	c808                	sw	a0,16(s0)
    1e84:	00042423          	sw	zero,8(s0) # e000f008 <__global_pointer$+0xc000e7c0>
    1e88:	401c                	lw	a5,0(s0)
    1e8a:	0017e793          	ori	a5,a5,1
    1e8e:	c01c                	sw	a5,0(s0)
    1e90:	e000f7b7          	lui	a5,0xe000f
    1e94:	43d8                	lw	a4,4(a5)
    1e96:	8b05                	andi	a4,a4,1
    1e98:	df75                	beqz	a4,1e94 <Delay_Ms+0x2a>
    1e9a:	4398                	lw	a4,0(a5)
    1e9c:	9b79                	andi	a4,a4,-2
    1e9e:	c398                	sw	a4,0(a5)
    1ea0:	a0afe06f          	j	aa <__riscv_restore_0>
    1ea4:	117e                	slli	sp,sp,0x3f
    1ea6:	0000                	unimp
    1ea8:	1194                	addi	a3,sp,224
    1eaa:	0000                	unimp
    1eac:	11a2                	slli	gp,gp,0x28
    1eae:	0000                	unimp
    1eb0:	11b6                	slli	gp,gp,0x2d
    1eb2:	0000                	unimp
    1eb4:	11c2                	slli	gp,gp,0x30
    1eb6:	0000                	unimp
    1eb8:	11d6                	slli	gp,gp,0x35
    1eba:	0000                	unimp
    1ebc:	11e2                	slli	gp,gp,0x38
    1ebe:	0000                	unimp
    1ec0:	11f6                	slli	gp,gp,0x3d
    1ec2:	0000                	unimp
    1ec4:	1202                	slli	tp,tp,0x20
    1ec6:	0000                	unimp
    1ec8:	120a                	slli	tp,tp,0x22
    1eca:	0000                	unimp
    1ecc:	1218                	addi	a4,sp,288
    1ece:	0000                	unimp
    1ed0:	120a                	slli	tp,tp,0x22
    1ed2:	0000                	unimp
    1ed4:	1218                	addi	a4,sp,288
    1ed6:	0000                	unimp
    1ed8:	120a                	slli	tp,tp,0x22
    1eda:	0000                	unimp
    1edc:	1218                	addi	a4,sp,288
    1ede:	0000                	unimp
    1ee0:	120a                	slli	tp,tp,0x22
    1ee2:	0000                	unimp
    1ee4:	1218                	addi	a4,sp,288
    1ee6:	0000                	unimp
    1ee8:	1220                	addi	s0,sp,296
    1eea:	0000                	unimp
    1eec:	1228                	addi	a0,sp,296
    1eee:	0000                	unimp
    1ef0:	123e                	slli	tp,tp,0x2f
    1ef2:	0000                	unimp
    1ef4:	1252                	slli	tp,tp,0x34
    1ef6:	0000                	unimp
    1ef8:	1268                	addi	a0,sp,300
    1efa:	0000                	unimp
    1efc:	1280                	addi	s0,sp,352
    1efe:	0000                	unimp
    1f00:	1296                	slli	t0,t0,0x25
    1f02:	0000                	unimp
    1f04:	12ae                	slli	t0,t0,0x2b
    1f06:	0000                	unimp
    1f08:	12c4                	addi	s1,sp,356
    1f0a:	0000                	unimp
    1f0c:	12da                	slli	t0,t0,0x36
    1f0e:	0000                	unimp
    1f10:	12e2                	slli	t0,t0,0x38
    1f12:	0000                	unimp
    1f14:	12fa                	slli	t0,t0,0x3e
    1f16:	0000                	unimp
    1f18:	1310                	addi	a2,sp,416
    1f1a:	0000                	unimp
    1f1c:	1328                	addi	a0,sp,424
    1f1e:	0000                	unimp
    1f20:	1340                	addi	s0,sp,420
    1f22:	0000                	unimp
    1f24:	1340                	addi	s0,sp,420
    1f26:	0000                	unimp
    1f28:	1340                	addi	s0,sp,420
    1f2a:	0000                	unimp
    1f2c:	1340                	addi	s0,sp,420
    1f2e:	0000                	unimp
    1f30:	1348                	addi	a0,sp,420
    1f32:	0000                	unimp
    1f34:	1368                	addi	a0,sp,428
    1f36:	0000                	unimp
    1f38:	1384                	addi	s1,sp,480
	...

00001f3c <cos_lut>:
    1f3c:	7642 0000 7d8a 0000 7f62 0000 7fd9 0000     Bv...}..b.......
    1f4c:	7ff6 0000 7ffe 0000 7fff 0000               ............

00001f58 <led_x_pos>:
    1f58:	5962 454f 313b 1d27 0a13 0003 0100 0603     bYOE;1'.........
    1f68:	160d 2a20 3e34 5148 5e59 6763 6869 a59c     .. *4>HQY^cgih..
    1f78:	b9af cdc3 e1d7 f4eb fefb fdff f8fb e8f1     ................
    1f88:	d4de c0ca adb6 a0a6 979b 9695               ............

00001f94 <led_y_pos>:
    1f94:	f1e5 f8f6 fcfa fffd f2fd b9da 7396 3050     .............sP0
    1fa4:	0a17 0205 0000 1205 4529 8564 caa7 f1e5     ........)Ed.....
    1fb4:	f9f5 fcfa fefd f2fc b9da 7396 2f50 0a17     ...........sP/..
    1fc4:	0205 0000 1105 4529 8564 c9a7               ......)Ed...

00001fd0 <sin_lut>:
    1fd0:	30fc 0000 18f9 0000 0c8c 0000 0648 0000     .0..........H...
    1fe0:	0324 0000 0192 0000 00c9 0000               $...........
